ccopy_reg
_reconstructor
p1
(ccode.notes.TimeNote
TimeNote
p2
c__builtin__
object
p3
NtRp4
(dp5
S'original_text'
p6
S"In Washington today, the Federal Aviation Administration released air traffic control tapes from the night the TWA Flight eight hundred went down. There's nothing new on why the plane exploded, but you cannot miss the moment. ABC's Lisa Stark has more.\n\nThere was no hint of trouble in the last conversation between controllers and TWA pilot Steven Snyder TWA eight hundred climb maintain one five thousand.\n\nTWA's eight hundred heavy climb and maintain one five thousand leavin- three thousand.\n\nBut a minute and a half later, a pilot from a nearby flight calls in.\n\nAh, we just saw an explosion up ahead of us here about sixteen thousand feet or something like that. It just went down.\n\nThe controller at Boston center tries to raise TWA eight hundred.\n\nTWA eight hundred, if you hear center, ident.\n\nThere is no response. Later, the controller asks the Eastwind pilot for more details.\n\nAh yes, sir. It- It just blew up in the air, and then we saw two fireballs go down to the, to the water, and there was a big small, ah, smoke, from ah, coming up from that.\n\nAt one point, when it became clear controllers could not contact the plane, someone said a prayer.\n\nTWA eight hundred center, I think that was him.\n\nI think so.\n\nGod bless him.\n\nLisa Stark ABC news Washington"
p7
sS'annotated_note_path'
p8
S'training_data/ABC19980114.1830.0611.tml'
p9
sS'dependency_paths'
p10
g1
(ccode.notes.utilities.pre_processing.naf_parse
DependencyPath
p11
g3
NtRp12
(dp13
S'tree'
p14
(dp15
S't218'
p16
g1
(ccode.notes.utilities.pre_processing.naf_parse
DependencyTree
p17
g3
NtRp18
(dp19
S'children'
p20
(lp21
S't'
aS'3'
aS'2'
aS'5'
aS't'
aS'3'
aS'3'
aS'0'
aS't'
aS'4'
aS'2'
aS'2'
aS't'
aS'2'
aS'7'
aS'8'
aS't'
aS'2'
aS'7'
aS'6'
aS't'
aS'2'
aS'7'
aS'5'
aS't'
aS'2'
aS'7'
aS'3'
aS't'
aS'2'
aS'7'
aS'7'
aS't'
aS'2'
aS'8'
aS'7'
aS't'
aS'2'
aS'8'
aS'0'
aS't'
aS'2'
aS'7'
aS'9'
aS't'
aS'2'
aS'8'
aS'1'
aS't'
aS'4'
aS'4'
aS'1'
aS't'
aS'3'
aS'3'
aS'2'
aS't'
aS'3'
aS'7'
aS'8'
aS't'
aS'4'
aS'4'
aS'8'
aS't'
aS'4'
aS'4'
aS'4'
aS't'
aS'4'
aS'4'
aS'6'
aS't'
aS'4'
aS'4'
aS'7'
aS't'
aS'8'
aS'7'
aS't'
aS'9'
aS'6'
aS't'
aS'9'
aS'0'
aS't'
aS'3'
aS'7'
aS'1'
aS't'
aS'4'
aS'5'
aS'0'
aS't'
aS'8'
aS'4'
aS't'
aS'8'
aS'2'
aS't'
aS'8'
aS'3'
aS't'
aS'3'
aS'8'
aS'0'
aS't'
aS'3'
aS'7'
aS'9'
aS't'
aS'3'
aS'7'
aS'6'
aS't'
aS'3'
aS'7'
aS'4'
aS't'
aS'3'
aS'7'
aS'5'
aS't'
aS'8'
aS'5'
aS't'
aS'7'
aS'9'
aS't'
aS'8'
aS'1'
aS't'
aS'1'
aS'8'
aS'9'
aS't'
aS'1'
aS'7'
aS'5'
aS't'
aS'1'
aS'8'
aS'2'
aS't'
aS'1'
aS'7'
aS'8'
aS't'
aS'1'
aS'7'
aS'9'
aS't'
aS'1'
aS'6'
aS'9'
aS't'
aS'1'
aS'7'
aS'3'
aS't'
aS'1'
aS'7'
aS'1'
aS't'
aS'1'
aS'7'
aS'2'
aS't'
aS'1'
aS'7'
aS'7'
aS't'
aS'1'
aS'8'
aS'1'
aS't'
aS'7'
aS'0'
aS't'
aS'7'
aS'1'
aS't'
aS'7'
aS'6'
aS't'
aS'6'
aS'8'
aS't'
aS'7'
aS'7'
aS't'
aS'7'
aS'3'
aS't'
aS'7'
aS'5'
aS't'
aS'7'
aS'4'
aS't'
aS'8'
aS'6'
aS't'
aS'8'
aS'0'
aS't'
aS'3'
aS'3'
aS'5'
aS't'
aS'3'
aS'6'
aS'5'
aS't'
aS'3'
aS'6'
aS'7'
aS't'
aS'3'
aS'6'
aS'0'
aS't'
aS'2'
aS'5'
aS'0'
aS't'
aS'3'
aS'6'
aS'1'
aS't'
aS'2'
aS'4'
aS'6'
aS't'
aS'2'
aS'5'
aS'1'
aS't'
aS'2'
aS'4'
aS'8'
aS't'
aS'4'
aS'2'
aS'8'
aS't'
aS'4'
aS'2'
aS'9'
aS't'
aS'4'
aS'3'
aS'1'
aS't'
aS'4'
aS'3'
aS'3'
aS't'
aS'4'
aS'3'
aS'2'
aS't'
aS'4'
aS'4'
aS'2'
aS't'
aS'4'
aS'2'
aS'4'
aS't'
aS'3'
aS'6'
aS'4'
aS't'
aS'3'
aS'7'
aS'0'
aS't'
aS'3'
aS'6'
aS'6'
aS't'
aS'3'
aS'6'
aS'8'
aS't'
aS'3'
aS'7'
aS'3'
aS't'
aS'2'
aS'4'
aS'2'
aS't'
aS'2'
aS'3'
aS'9'
aS't'
aS'2'
aS'4'
aS'4'
aS't'
aS'2'
aS'4'
aS'5'
aS't'
aS'2'
aS'4'
aS'3'
aS't'
aS'2'
aS'4'
aS'0'
aS't'
aS'4'
aS'5'
aS'2'
aS't'
aS'4'
aS'5'
aS'4'
aS't'
aS'2'
aS'8'
aS'2'
aS't'
aS'9'
aS'7'
aS't'
aS'9'
aS'9'
aS't'
aS'1'
aS'0'
aS'2'
aS't'
aS'1'
aS'0'
aS'1'
aS't'
aS'4'
aS'5'
aS'5'
aS't'
aS'9'
aS'3'
aS't'
aS'9'
aS'4'
aS't'
aS'9'
aS'2'
aS't'
aS'9'
aS'5'
aS't'
aS'9'
aS'1'
aS't'
aS'8'
aS'9'
aS't'
aS'1'
aS'6'
aS'4'
aS't'
aS'1'
aS'6'
aS'5'
aS't'
aS'1'
aS'6'
aS'1'
aS't'
aS'1'
aS'6'
aS'0'
aS't'
aS'6'
aS't'
aS'5'
aS't'
aS'1'
aS'9'
aS't'
aS'8'
aS't'
aS'1'
aS't'
aS'2'
aS't'
aS'3'
aS't'
aS'1'
aS'6'
aS'7'
aS't'
aS'1'
aS'6'
aS'6'
aS't'
aS'1'
aS'7'
aS'0'
aS't'
aS'1'
aS'7'
aS'4'
aS't'
aS'1'
aS'5'
aS'5'
aS't'
aS'1'
aS'5'
aS'9'
aS't'
aS'4'
aS'1'
aS'8'
aS't'
aS'4'
aS'4'
aS'5'
aS't'
aS'1'
aS'0'
aS't'
aS'9'
aS't'
aS'2'
aS'5'
aS'9'
aS't'
aS'2'
aS'8'
aS'8'
aS't'
aS'2'
aS'9'
aS'0'
aS't'
aS'2'
aS'9'
aS'3'
aS't'
aS'2'
aS'9'
aS'2'
aS't'
aS'3'
aS'2'
aS'1'
aS't'
aS'3'
aS'1'
aS'4'
aS't'
aS'3'
aS'1'
aS'5'
aS't'
aS'3'
aS'1'
aS'7'
aS't'
aS'3'
aS'1'
aS'8'
aS't'
aS'3'
aS'0'
aS'9'
aS't'
aS'3'
aS'0'
aS'8'
aS't'
aS'3'
aS'3'
aS'6'
aS't'
aS'2'
aS'6'
aS'0'
aS't'
aS'2'
aS'4'
aS'9'
aS't'
aS'2'
aS'7'
aS'2'
aS't'
aS'2'
aS'5'
aS'2'
aS't'
aS'2'
aS'6'
aS'6'
aS't'
aS'2'
aS'5'
aS'4'
aS't'
aS'2'
aS'6'
aS'2'
aS't'
aS'4'
aS'4'
aS'9'
aS't'
aS'4'
aS'6'
aS'6'
aS't'
aS'4'
aS'6'
aS'7'
aS't'
aS'4'
aS'6'
aS'5'
aS't'
aS'4'
aS'6'
aS'3'
aS't'
aS'4'
aS't'
aS'3'
aS'7'
aS'2'
aS't'
aS'4'
aS'6'
aS'4'
aS't'
aS'4'
aS'6'
aS'2'
aS't'
aS'4'
aS'6'
aS'8'
aS't'
aS'4'
aS'6'
aS'0'
aS't'
aS'1'
aS'5'
aS'2'
aS't'
aS'1'
aS'5'
aS'1'
aS't'
aS'1'
aS'4'
aS'9'
aS't'
aS'1'
aS'4'
aS'8'
aS't'
aS'1'
aS'5'
aS'3'
aS't'
aS'3'
aS'9'
aS'1'
aS't'
aS'3'
aS'8'
aS'9'
aS't'
aS'3'
aS'9'
aS'2'
aS't'
aS'1'
aS'5'
aS'7'
aS't'
aS'1'
aS'6'
aS'3'
aS't'
aS'1'
aS'5'
aS'8'
aS't'
aS'1'
aS'5'
aS'6'
aS't'
aS'1'
aS'6'
aS'2'
aS't'
aS'3'
aS'9'
aS'9'
aS't'
aS'3'
aS'8'
aS'8'
aS't'
aS'3'
aS'8'
aS'2'
aS't'
aS'3'
aS'8'
aS'1'
aS't'
aS'3'
aS'9'
aS'3'
aS't'
aS'3'
aS'8'
aS'7'
aS't'
aS'3'
aS'9'
aS'4'
aS't'
aS'3'
aS'9'
aS'6'
aS't'
aS'3'
aS'9'
aS'7'
aS't'
aS'3'
aS'9'
aS'8'
aS't'
aS'1'
aS'3'
aS't'
aS'1'
aS'4'
aS't'
aS'1'
aS'5'
aS't'
aS'1'
aS'7'
aS't'
aS'1'
aS'2'
aS't'
aS'1'
aS'8'
aS't'
aS'1'
aS'1'
aS't'
aS'1'
aS'6'
aS't'
aS'2'
aS'9'
aS'4'
aS't'
aS'3'
aS'0'
aS'0'
aS't'
aS'3'
aS'0'
aS'7'
aS't'
aS'3'
aS'0'
aS'6'
aS't'
aS'3'
aS'0'
aS'2'
aS't'
aS'3'
aS'0'
aS'1'
aS't'
aS'3'
aS'0'
aS'5'
aS't'
aS'3'
aS'0'
aS'4'
aS't'
aS'3'
aS'1'
aS'3'
aS't'
aS'2'
aS'2'
aS'8'
aS't'
aS'2'
aS'3'
aS'1'
aS't'
aS'4'
aS'1'
aS'5'
aS't'
aS'4'
aS'1'
aS'4'
aS't'
aS'4'
aS'1'
aS'2'
aS't'
aS'2'
aS'2'
aS'5'
aS't'
aS'2'
aS'2'
aS'6'
aS't'
aS'2'
aS'1'
aS'9'
aS't'
aS'2'
aS'2'
aS'7'
aS't'
aS'2'
aS'2'
aS'0'
aS't'
aS'2'
aS'1'
aS'8'
aS't'
aS'2'
aS'2'
aS'2'
aS't'
aS'2'
aS'2'
aS'3'
aS't'
aS'2'
aS'2'
aS'4'
aS't'
aS'4'
aS'3'
aS'4'
aS't'
aS'4'
aS'3'
aS'6'
aS't'
aS'3'
aS'9'
aS'0'
aS't'
aS'1'
aS'4'
aS'4'
aS't'
aS'1'
aS'4'
aS'7'
aS't'
aS'1'
aS'5'
aS'0'
aS't'
aS'1'
aS'4'
aS'3'
aS't'
aS'1'
aS'4'
aS'6'
aS't'
aS'1'
aS'2'
aS'9'
aS't'
aS'1'
aS'2'
aS'8'
aS't'
aS'1'
aS'5'
aS'4'
aS't'
aS'1'
aS'3'
aS'0'
aS't'
aS'1'
aS'3'
aS'4'
aS't'
aS'1'
aS'3'
aS'6'
aS't'
aS'1'
aS'4'
aS'2'
aS't'
aS'3'
aS'8'
aS'3'
aS't'
aS'3'
aS'8'
aS'5'
aS't'
aS'3'
aS'8'
aS'4'
aS't'
aS'1'
aS'4'
aS'5'
aS't'
aS'4'
aS'0'
aS'3'
aS't'
aS'4'
aS'3'
aS'7'
aS't'
aS'2'
aS'6'
aS't'
aS'2'
aS'1'
aS't'
aS'2'
aS'0'
aS't'
aS'2'
aS'3'
aS't'
aS'3'
aS'1'
aS't'
aS'2'
aS'5'
aS't'
aS'2'
aS'4'
aS't'
aS'2'
aS'7'
aS't'
aS'4'
aS'8'
aS't'
aS'4'
aS'7'
aS't'
aS'4'
aS'6'
aS't'
aS'4'
aS'0'
aS'6'
aS't'
aS'4'
aS'3'
aS'5'
aS't'
aS'3'
aS'3'
aS'7'
aS't'
aS'3'
aS'4'
aS'3'
aS't'
aS'3'
aS'4'
aS'2'
aS't'
aS'3'
aS'4'
aS'0'
aS't'
aS'3'
aS'7'
aS't'
aS'4'
aS'0'
aS't'
aS'3'
aS'8'
aS't'
aS'3'
aS'9'
aS't'
aS'3'
aS'3'
aS'4'
aS't'
aS'3'
aS'3'
aS'3'
aS't'
aS'3'
aS'3'
aS'1'
aS't'
aS'4'
aS'9'
aS't'
aS'4'
aS'3'
aS't'
aS'4'
aS'5'
aS't'
aS'3'
aS'1'
aS'0'
aS't'
aS'3'
aS'1'
aS'1'
aS't'
aS'3'
aS'1'
aS'2'
aS't'
aS'4'
aS'0'
aS'5'
aS't'
aS'3'
aS'5'
aS'0'
aS't'
aS'3'
aS'4'
aS'9'
aS't'
aS'2'
aS'3'
aS'7'
aS't'
aS'2'
aS'3'
aS'5'
aS't'
aS'2'
aS'3'
aS'8'
aS't'
aS'2'
aS'2'
aS'9'
aS't'
aS'2'
aS'3'
aS'2'
aS't'
aS'2'
aS'3'
aS'4'
aS't'
aS'2'
aS'3'
aS'3'
aS't'
aS'2'
aS'3'
aS'0'
aS't'
aS'2'
aS'1'
aS'1'
aS't'
aS'1'
aS'3'
aS'8'
aS't'
aS'1'
aS'4'
aS'0'
aS't'
aS'4'
aS'1'
aS'1'
aS't'
aS'1'
aS'3'
aS'3'
aS't'
aS'4'
aS'0'
aS'4'
aS't'
aS'4'
aS'0'
aS'7'
aS't'
aS'1'
aS'3'
aS'1'
aS't'
aS'1'
aS'3'
aS'2'
aS't'
aS'4'
aS'0'
aS'8'
aS't'
aS'4'
aS'0'
aS'0'
aS't'
aS'4'
aS'0'
aS'9'
aS't'
aS'4'
aS'0'
aS'2'
aS't'
aS'4'
aS'2'
aS'3'
aS't'
aS'1'
aS'3'
aS'5'
aS't'
aS'1'
aS'3'
aS'7'
aS't'
aS'1'
aS'3'
aS'9'
aS't'
aS'2'
aS'0'
aS'1'
aS't'
aS'4'
aS'1'
aS't'
aS'3'
aS'5'
aS't'
aS'3'
aS'4'
aS't'
aS'2'
aS'2'
aS't'
aS'3'
aS'3'
aS't'
aS'2'
aS'9'
aS't'
aS'2'
aS'8'
aS't'
aS'3'
aS'0'
aS't'
aS'5'
aS'6'
aS't'
aS'5'
aS'7'
aS't'
aS'5'
aS'8'
aS't'
aS'6'
aS'7'
aS't'
aS'6'
aS'0'
aS't'
aS'3'
aS'6'
aS't'
aS'4'
aS'2'
aS't'
aS'5'
aS'5'
aS't'
aS'5'
aS'1'
aS't'
aS'4'
aS'4'
aS't'
aS'5'
aS'2'
aS't'
aS'5'
aS'4'
aS't'
aS'5'
aS'3'
aS't'
aS'3'
aS'2'
aS'8'
aS't'
aS'3'
aS'2'
aS'6'
aS't'
aS'1'
aS'9'
aS'2'
aS't'
aS'1'
aS'9'
aS'9'
aS't'
aS'2'
aS'0'
aS'7'
aS't'
aS'2'
aS'0'
aS'5'
aS't'
aS'2'
aS'0'
aS'8'
aS't'
aS'2'
aS'0'
aS'6'
aS't'
aS'2'
aS'8'
aS'3'
aS't'
aS'2'
aS'8'
aS'6'
aS't'
aS'1'
aS'2'
aS'7'
aS't'
aS'2'
aS'8'
aS'4'
aS't'
aS'2'
aS'8'
aS'5'
aS't'
aS'4'
aS'2'
aS'0'
aS't'
aS'1'
aS'2'
aS'2'
aS't'
aS'1'
aS'2'
aS'0'
aS't'
aS'4'
aS'1'
aS'7'
aS't'
aS'4'
aS'1'
aS'6'
aS't'
aS'1'
aS'2'
aS'1'
aS't'
aS'1'
aS'2'
aS'6'
aS't'
aS'1'
aS'2'
aS'5'
aS't'
aS'4'
aS'1'
aS'3'
aS't'
aS'4'
aS'1'
aS'0'
aS't'
aS'3'
aS'8'
aS'6'
aS't'
aS'3'
aS'5'
aS'6'
aS't'
aS'3'
aS'5'
aS'7'
aS't'
aS'3'
aS'5'
aS'9'
aS't'
aS'3'
aS'6'
aS'3'
aS't'
aS'3'
aS'6'
aS'2'
aS't'
aS'2'
aS'1'
aS'6'
aS't'
aS'2'
aS'1'
aS'5'
aS't'
aS'2'
aS'1'
aS'7'
aS't'
aS'2'
aS'0'
aS'9'
aS't'
aS'2'
aS'1'
aS'0'
aS't'
aS'2'
aS'0'
aS'3'
aS't'
aS'2'
aS'0'
aS'4'
aS't'
aS'2'
aS'1'
aS'3'
aS't'
aS'6'
aS'9'
aS't'
aS'2'
aS'1'
aS'2'
aS't'
aS'2'
aS'0'
aS'0'
aS't'
aS'1'
aS'9'
aS'8'
aS't'
aS'1'
aS'9'
aS'7'
aS't'
aS'6'
aS'6'
aS't'
aS'1'
aS'9'
aS'6'
aS't'
aS'2'
aS'0'
aS'2'
aS't'
aS'1'
aS'9'
aS'5'
aS't'
aS'1'
aS'9'
aS'3'
aS't'
aS'1'
aS'9'
aS'0'
aS't'
aS'6'
aS'5'
aS't'
aS'1'
aS'9'
aS'1'
aS't'
aS'6'
aS'3'
aS't'
aS'6'
aS'4'
aS't'
aS'6'
aS'2'
aS't'
aS'6'
aS'1'
aS't'
aS'1'
aS'1'
aS'5'
aS't'
aS'1'
aS'1'
aS'6'
aS't'
aS'1'
aS'1'
aS'7'
aS't'
aS'1'
aS'0'
aS'5'
aS't'
aS'1'
aS'1'
aS'0'
aS't'
aS'1'
aS'0'
aS'6'
aS't'
aS'1'
aS'0'
aS'9'
aS't'
aS'9'
aS'8'
aS't'
aS'1'
aS'1'
aS'1'
aS't'
aS'1'
aS'1'
aS'2'
aS't'
aS'1'
aS'1'
aS'3'
aS't'
aS'3'
aS'5'
aS'5'
aS't'
aS'3'
aS'5'
aS'3'
aS't'
aS'1'
aS'2'
aS'3'
aS't'
aS'1'
aS'1'
aS'8'
aS't'
aS'1'
aS'2'
aS'4'
aS't'
aS'2'
aS'9'
aS'7'
aS't'
aS'2'
aS'9'
aS'6'
aS't'
aS'2'
aS'9'
aS'5'
aS't'
aS'2'
aS'9'
aS'8'
aS't'
aS'2'
aS'9'
aS'9'
aS't'
aS'4'
aS'2'
aS'6'
aS't'
aS'2'
aS'9'
aS'1'
aS't'
aS'3'
aS'2'
aS'0'
aS't'
aS'3'
aS'2'
aS'3'
aS't'
aS'3'
aS'2'
aS'2'
aS't'
aS'3'
aS'1'
aS'9'
aS't'
aS'3'
aS'5'
aS'1'
aS't'
aS'3'
aS'5'
aS'2'
aS't'
aS'3'
aS'2'
aS'4'
aS't'
aS'3'
aS'2'
aS'7'
aS't'
aS'3'
aS'2'
aS'9'
aS't'
aS'1'
aS'8'
aS'7'
aS't'
aS'2'
aS'5'
aS'8'
aS't'
aS'2'
aS'6'
aS'3'
aS't'
aS'2'
aS'6'
aS'1'
aS't'
aS'2'
aS'6'
aS'4'
aS't'
aS'4'
aS'2'
aS'7'
aS't'
aS'2'
aS'7'
aS'1'
aS't'
aS'2'
aS'6'
aS'5'
aS't'
aS'2'
aS'6'
aS'7'
aS't'
aS'2'
aS'5'
aS'5'
aS't'
aS'2'
aS'5'
aS'7'
aS't'
aS'2'
aS'5'
aS'6'
aS't'
aS'2'
aS'6'
aS'9'
aS't'
aS'2'
aS'7'
aS'0'
aS't'
aS'1'
aS'8'
aS'0'
aS't'
aS'2'
aS'6'
aS'8'
aS't'
aS'1'
aS'8'
aS'5'
aS't'
aS'1'
aS'8'
aS'3'
aS't'
aS'1'
aS'8'
aS'4'
aS't'
aS'1'
aS'8'
aS'6'
aS't'
aS'1'
aS'8'
aS'8'
aS't'
aS'1'
aS'0'
aS'0'
aS't'
aS'4'
aS'4'
aS'0'
aS't'
aS'4'
aS'3'
aS'9'
aS't'
aS'4'
aS'3'
aS'8'
aS't'
aS'1'
aS'0'
aS'4'
aS't'
aS'1'
aS'0'
aS'3'
aS't'
aS'3'
aS'4'
aS'7'
aS't'
aS'3'
aS'4'
aS'8'
aS't'
aS'1'
aS'0'
aS'8'
aS't'
aS'1'
aS'0'
aS'7'
aS't'
aS'3'
aS'5'
aS'4'
aS't'
aS'3'
aS'4'
aS'6'
aS't'
aS'3'
aS'4'
aS'4'
aS't'
aS'3'
aS'4'
aS'1'
aS't'
aS'3'
aS'3'
aS'9'
aS't'
aS'4'
aS'2'
aS'5'
aS't'
aS'4'
aS'5'
aS'8'
aS't'
aS'4'
aS'2'
aS'1'
aS't'
aS'4'
aS'1'
aS'9'
aS't'
aS'4'
aS'5'
aS'3'
aS't'
aS'4'
aS'5'
aS'1'
aS't'
aS'4'
aS'4'
aS'3'
aS't'
aS'4'
aS'5'
aS'7'
aS't'
aS'4'
aS'5'
aS'9'
aS't'
aS'8'
aS'8'
aS't'
aS'8'
aS'9'
aS't'
aS'8'
aS'7'
aS't'
aS'8'
aS'5'
aS't'
aS'9'
aS'0'
aS't'
aS'8'
aS'4'
aS't'
aS'8'
aS'0'
aS't'
aS'8'
aS'3'
aS't'
aS'8'
aS'2'
aS't'
aS'7'
aS'8'
aS't'
aS'7'
aS'9'
aS't'
aS'8'
aS'1'
aS't'
aS'7'
aS'5'
aS't'
aS'1'
aS'7'
aS'4'
aS't'
aS'1'
aS'7'
aS'5'
aS't'
aS'1'
aS'7'
aS'6'
aS't'
aS'1'
aS'7'
aS'8'
aS't'
aS'1'
aS'7'
aS'2'
aS't'
aS'1'
aS'7'
aS'1'
aS't'
aS'7'
aS'2'
aS't'
aS'7'
aS'1'
aS't'
aS'6'
aS'9'
aS't'
aS'7'
aS'3'
aS't'
aS'7'
aS'6'
aS't'
aS'7'
aS'7'
aS't'
aS'2'
aS'4'
aS'6'
aS't'
aS'2'
aS'4'
aS'7'
aS't'
aS'2'
aS'5'
aS'1'
aS't'
aS'2'
aS'5'
aS'3'
aS't'
aS'2'
aS'4'
aS'8'
aS't'
aS'2'
aS'4'
aS'5'
aS't'
aS'2'
aS'4'
aS'4'
aS't'
aS'2'
aS'4'
aS'3'
aS't'
aS'2'
aS'4'
aS'0'
aS't'
aS'1'
aS'0'
aS'0'
aS't'
aS'9'
aS'5'
aS't'
aS'9'
aS'6'
aS't'
aS'9'
aS'4'
aS't'
aS'1'
aS'0'
aS'7'
aS't'
aS'9'
aS'1'
aS't'
aS'9'
aS'2'
aS't'
aS'1'
aS'6'
aS'5'
aS't'
aS'1'
aS'6'
aS'3'
aS't'
aS'1'
aS'6'
aS'2'
aS't'
aS'1'
aS'6'
aS'9'
aS't'
aS'1'
aS'7'
aS'3'
aS't'
aS'1'
aS'6'
aS'4'
aS't'
aS'6'
aS't'
aS'7'
aS't'
aS'5'
aS't'
aS'1'
aS'5'
aS'9'
aS't'
aS'2'
aS'4'
aS't'
aS'8'
aS't'
aS'1'
aS'3'
aS't'
aS'4'
aS't'
aS'3'
aS't'
aS'1'
aS't'
aS'1'
aS'6'
aS'7'
aS't'
aS'1'
aS'7'
aS'0'
aS't'
aS'1'
aS'6'
aS'8'
aS't'
aS'2'
aS't'
aS'2'
aS'6'
aS'0'
aS't'
aS'2'
aS'5'
aS'8'
aS't'
aS'2'
aS'6'
aS'1'
aS't'
aS'2'
aS'5'
aS'0'
aS't'
aS'2'
aS'5'
aS'2'
aS't'
aS'2'
aS'5'
aS'4'
aS't'
aS'2'
aS'5'
aS'7'
aS't'
aS'2'
aS'5'
aS'6'
aS't'
aS'1'
aS'5'
aS'3'
aS't'
aS'1'
aS'5'
aS'1'
aS't'
aS'1'
aS'5'
aS'2'
aS't'
aS'1'
aS'4'
aS'9'
aS't'
aS'1'
aS'5'
aS'4'
aS't'
aS'1'
aS'5'
aS'0'
aS't'
aS'1'
aS'5'
aS'6'
aS't'
aS'1'
aS'4'
aS'8'
aS't'
aS'1'
aS'5'
aS'7'
aS't'
aS'1'
aS'6'
aS'1'
aS't'
aS'1'
aS'6'
aS'0'
aS't'
aS'1'
aS'6'
aS't'
aS'2'
aS'2'
aS't'
aS'1'
aS'5'
aS't'
aS'1'
aS'1'
aS't'
aS'1'
aS'4'
aS't'
aS'1'
aS'0'
aS't'
aS'1'
aS'2'
aS't'
aS'1'
aS'8'
aS't'
aS'2'
aS'2'
aS'7'
aS't'
aS'2'
aS'2'
aS'8'
aS't'
aS'2'
aS'3'
aS'2'
aS't'
aS'2'
aS'2'
aS'4'
aS't'
aS'2'
aS'2'
aS'6'
aS't'
aS'2'
aS'2'
aS'9'
aS't'
aS'2'
aS'2'
aS'1'
aS't'
aS'2'
aS'2'
aS'5'
aS't'
aS'1'
aS'4'
aS'7'
aS't'
aS'1'
aS'4'
aS'6'
aS't'
aS'1'
aS'4'
aS'3'
aS't'
aS'1'
aS'4'
aS'4'
aS't'
aS'1'
aS'4'
aS'2'
aS't'
aS'1'
aS'4'
aS'1'
aS't'
aS'3'
aS'3'
aS't'
aS'2'
aS'0'
aS't'
aS'1'
aS'7'
aS't'
aS'1'
aS'9'
aS't'
aS'2'
aS'1'
aS't'
aS'2'
aS'3'
aS't'
aS'2'
aS'9'
aS't'
aS'2'
aS'8'
aS't'
aS'3'
aS'4'
aS't'
aS'3'
aS'5'
aS't'
aS'2'
aS'5'
aS't'
aS'4'
aS'1'
aS't'
aS'2'
aS'7'
aS't'
aS'4'
aS'3'
aS't'
aS'3'
aS'9'
aS't'
aS'4'
aS'8'
aS't'
aS'4'
aS'7'
aS't'
aS'4'
aS'5'
aS't'
aS'4'
aS'2'
aS't'
aS'4'
aS'4'
aS't'
aS'2'
aS'3'
aS'7'
aS't'
aS'2'
aS'4'
aS'1'
aS't'
aS'2'
aS'3'
aS'8'
aS't'
aS'2'
aS'4'
aS'2'
aS't'
aS'2'
aS'2'
aS'3'
aS't'
aS'2'
aS'3'
aS'5'
aS't'
aS'2'
aS'3'
aS'6'
aS't'
aS'2'
aS'3'
aS'4'
aS't'
aS'2'
aS'3'
aS'3'
aS't'
aS'2'
aS'3'
aS'1'
aS't'
aS'2'
aS'3'
aS'0'
aS't'
aS'1'
aS'3'
aS'7'
aS't'
aS'1'
aS'4'
aS'5'
aS't'
aS'1'
aS'3'
aS'5'
aS't'
aS'1'
aS'4'
aS'0'
aS't'
aS'1'
aS'3'
aS'0'
aS't'
aS'1'
aS'2'
aS'9'
aS't'
aS'1'
aS'3'
aS'3'
aS't'
aS'1'
aS'3'
aS'2'
aS't'
aS'1'
aS'3'
aS'4'
aS't'
aS'1'
aS'3'
aS'6'
aS't'
aS'1'
aS'3'
aS'8'
aS't'
aS'4'
aS'0'
aS't'
aS'3'
aS'0'
aS't'
aS'3'
aS'6'
aS't'
aS'3'
aS'8'
aS't'
aS'3'
aS'7'
aS't'
aS'3'
aS'1'
aS't'
aS'3'
aS'2'
aS't'
aS'5'
aS'9'
aS't'
aS'7'
aS'0'
aS't'
aS'5'
aS'6'
aS't'
aS'5'
aS'7'
aS't'
aS'6'
aS'0'
aS't'
aS'4'
aS'9'
aS't'
aS'5'
aS'2'
aS't'
aS'7'
aS'4'
aS't'
aS'1'
aS'9'
aS'4'
aS't'
aS'1'
aS'9'
aS'5'
aS't'
aS'1'
aS'9'
aS'0'
aS't'
aS'1'
aS'9'
aS'1'
aS't'
aS'5'
aS'1'
aS't'
aS'5'
aS'3'
aS't'
aS'5'
aS'5'
aS't'
aS'5'
aS'4'
aS't'
aS'5'
aS'8'
aS't'
aS'2'
aS'2'
aS'0'
aS't'
aS'2'
aS'1'
aS'9'
aS't'
aS'2'
aS'0'
aS'1'
aS't'
aS'2'
aS'0'
aS'2'
aS't'
aS'2'
aS'1'
aS'5'
aS't'
aS'2'
aS'1'
aS'4'
aS't'
aS'2'
aS'1'
aS'7'
aS't'
aS'2'
aS'1'
aS'3'
aS't'
aS'2'
aS'1'
aS'8'
aS't'
aS'2'
aS'0'
aS'5'
aS't'
aS'2'
aS'0'
aS'6'
aS't'
aS'1'
aS'2'
aS'0'
aS't'
aS'1'
aS'2'
aS'4'
aS't'
aS'1'
aS'2'
aS'2'
aS't'
aS'1'
aS'2'
aS'1'
aS't'
aS'1'
aS'2'
aS'7'
aS't'
aS'1'
aS'2'
aS'6'
aS't'
aS'1'
aS'2'
aS'5'
aS't'
aS'2'
aS'1'
aS'6'
aS't'
aS'6'
aS'8'
aS't'
aS'6'
aS'7'
aS't'
aS'2'
aS'0'
aS'8'
aS't'
aS'2'
aS'0'
aS'9'
aS't'
aS'2'
aS'1'
aS'1'
aS't'
aS'2'
aS'1'
aS'0'
aS't'
aS'2'
aS'1'
aS'2'
aS't'
aS'2'
aS'0'
aS'7'
aS't'
aS'6'
aS'4'
aS't'
aS'1'
aS'9'
aS'8'
aS't'
aS'1'
aS'9'
aS'3'
aS't'
aS'2'
aS'0'
aS'4'
aS't'
aS'1'
aS'9'
aS'9'
aS't'
aS'1'
aS'9'
aS'6'
aS't'
aS'1'
aS'9'
aS'7'
aS't'
aS'2'
aS'0'
aS'0'
aS't'
aS'1'
aS'7'
aS'9'
aS't'
aS'2'
aS'0'
aS'3'
aS't'
aS'6'
aS'3'
aS't'
aS'6'
aS'1'
aS't'
aS'6'
aS'5'
aS't'
aS'6'
aS'6'
aS't'
aS'6'
aS'2'
aS't'
aS'1'
aS'1'
aS'7'
aS't'
aS'1'
aS'1'
aS'5'
aS't'
aS'1'
aS'1'
aS'9'
aS't'
aS'1'
aS'1'
aS'8'
aS't'
aS'1'
aS'1'
aS'3'
aS't'
aS'1'
aS'2'
aS'3'
aS't'
aS'1'
aS'1'
aS'6'
aS't'
aS'1'
aS'1'
aS'4'
aS't'
aS'1'
aS'2'
aS'8'
aS't'
aS'1'
aS'1'
aS'0'
aS't'
aS'1'
aS'1'
aS'1'
aS't'
aS'1'
aS'0'
aS'9'
aS't'
aS'1'
aS'0'
aS'8'
aS't'
aS'1'
aS'9'
aS'2'
aS't'
aS'2'
aS'6'
aS'2'
aS't'
aS'2'
aS'6'
aS'3'
aS't'
aS'2'
aS'6'
aS'4'
aS't'
aS'2'
aS'6'
aS'5'
aS't'
aS'1'
aS'8'
aS'9'
aS't'
aS'1'
aS'8'
aS'8'
aS't'
aS'1'
aS'8'
aS'1'
aS't'
aS'1'
aS'8'
aS'0'
aS't'
aS'1'
aS'8'
aS'2'
aS't'
aS'1'
aS'8'
aS'5'
aS't'
aS'1'
aS'8'
aS'4'
aS't'
aS'2'
aS'2'
aS'2'
aS't'
aS'1'
aS'8'
aS'7'
aS't'
aS'1'
aS'8'
aS'6'
aS't'
aS'1'
aS'0'
aS'5'
aS't'
aS'1'
aS'0'
aS'1'
aS't'
aS'9'
aS'7'
aS't'
aS'9'
aS'8'
aS't'
aS'9'
aS'9'
aS't'
aS'1'
aS'0'
aS'3'
aS't'
aS'1'
aS'0'
aS'2'
aS't'
aS'1'
aS'0'
aS'4'
aS't'
aS'1'
aS'0'
aS'6'
asS'parent'
p22
S't206'
p23
sbsS't161'
p24
g1
(g17
g3
NtRp25
(dp26
g20
g21
sg22
S't158'
p27
sbsS't89'
p28
g1
(g17
g3
NtRp29
(dp30
g20
g21
sg22
S't87'
p31
sbsS't88'
p32
g1
(g17
g3
NtRp33
(dp34
g20
g21
sg22
g28
sbsg31
g1
(g17
g3
NtRp35
(dp36
g20
g21
sg22
S't86'
p37
sbsg37
g1
(g17
g3
NtRp38
(dp39
g20
g21
sg22
NsbsS't85'
p40
g1
(g17
g3
NtRp41
(dp42
g20
g21
sg22
g37
sbsS't84'
p43
g1
(g17
g3
NtRp44
(dp45
g20
g21
sg22
S't85'
p46
sbsS't83'
p47
g1
(g17
g3
NtRp48
(dp49
g20
g21
sg22
S't82'
p50
sbsg50
g1
(g17
g3
NtRp51
(dp52
g20
g21
sg22
S't81'
p53
sbsg53
g1
(g17
g3
NtRp54
(dp55
g20
g21
sg22
S't80'
p56
sbsS't80'
p57
g1
(g17
g3
NtRp58
(dp59
g20
g21
sg22
g46
sbsS't174'
p60
g1
(g17
g3
NtRp61
(dp62
g20
g21
sg22
S't177'
p63
sbsS't175'
p64
g1
(g17
g3
NtRp65
(dp66
g20
g21
sg22
g63
sbsS't176'
p67
g1
(g17
g3
NtRp68
(dp69
g20
g21
sg22
g63
sbsg63
g1
(g17
g3
NtRp70
(dp71
g20
g21
sg22
NsbsS't170'
p72
g1
(g17
g3
NtRp73
(dp74
g20
g21
sg22
S't169'
p75
sbsS't171'
p76
g1
(g17
g3
NtRp77
(dp78
g20
g21
sg22
S't172'
p79
sbsS't172'
p80
g1
(g17
g3
NtRp81
(dp82
g20
g21
sg22
g72
sbsS't173'
p83
g1
(g17
g3
NtRp84
(dp85
g20
g21
sg22
S't166'
p86
sbsS't178'
p87
g1
(g17
g3
NtRp88
(dp89
g20
g21
sg22
g63
sbsS't179'
p90
g1
(g17
g3
NtRp91
(dp92
g20
g21
sg22
S't195'
p93
sbsS't72'
p94
g1
(g17
g3
NtRp95
(dp96
g20
g21
sg22
S't73'
p97
sbsg97
g1
(g17
g3
NtRp98
(dp99
g20
g21
sg22
S't71'
p100
sbsS't70'
p101
g1
(g17
g3
NtRp102
(dp103
g20
g21
sg22
S't58'
p104
sbsS't71'
p105
g1
(g17
g3
NtRp106
(dp107
g20
g21
sg22
g101
sbsS't76'
p108
g1
(g17
g3
NtRp109
(dp110
g20
g21
sg22
S't75'
p111
sbsS't77'
p112
g1
(g17
g3
NtRp113
(dp114
g20
g21
sg22
S't78'
p115
sbsS't74'
p116
g1
(g17
g3
NtRp117
(dp118
g20
g21
sg22
S't50'
p119
sbsS't75'
p120
g1
(g17
g3
NtRp121
(dp122
g20
g21
sg22
g56
sbsS't78'
p123
g1
(g17
g3
NtRp124
(dp125
g20
g21
sg22
g56
sbsS't79'
p126
g1
(g17
g3
NtRp127
(dp128
g20
g21
sg22
g56
sbsS't248'
p129
g1
(g17
g3
NtRp130
(dp131
g20
g21
sg22
S't249'
p132
sbsg132
g1
(g17
g3
NtRp133
(dp134
g20
g21
sg22
NsbsS't246'
p135
g1
(g17
g3
NtRp136
(dp137
g20
g21
sg22
g132
sbsS't247'
p138
g1
(g17
g3
NtRp139
(dp140
g20
g21
sg22
g132
sbsS't244'
p141
g1
(g17
g3
NtRp142
(dp143
g20
g21
sg22
S't245'
p144
sbsS't245'
p145
g1
(g17
g3
NtRp146
(dp147
g20
g21
sg22
S't246'
p148
sbsS't242'
p149
g1
(g17
g3
NtRp150
(dp151
g20
g21
sg22
S't239'
p152
sbsS't243'
p153
g1
(g17
g3
NtRp154
(dp155
g20
g21
sg22
g144
sbsS't240'
p156
g1
(g17
g3
NtRp157
(dp158
g20
g21
sg22
S't241'
p159
sbsg159
g1
(g17
g3
NtRp160
(dp161
g20
g21
sg22
g152
sbsS't98'
p162
g1
(g17
g3
NtRp163
(dp164
g20
g21
sg22
S't100'
p165
sbsS't99'
p166
g1
(g17
g3
NtRp167
(dp168
g20
g21
sg22
g165
sbsS't94'
p169
g1
(g17
g3
NtRp170
(dp171
g20
g21
sg22
S't93'
p172
sbsS't95'
p173
g1
(g17
g3
NtRp174
(dp175
g20
g21
sg22
S't96'
p176
sbsg176
g1
(g17
g3
NtRp177
(dp178
g20
g21
sg22
S't97'
p179
sbsg179
g1
(g17
g3
NtRp180
(dp181
g20
g21
sg22
g165
sbsS't90'
p182
g1
(g17
g3
NtRp183
(dp184
g20
g21
sg22
g37
sbsS't91'
p185
g1
(g17
g3
NtRp186
(dp187
g20
g21
sg22
g172
sbsS't92'
p188
g1
(g17
g3
NtRp189
(dp190
g20
g21
sg22
g172
sbsg172
g1
(g17
g3
NtRp191
(dp192
g20
g21
sg22
NsbsS't167'
p193
g1
(g17
g3
NtRp194
(dp195
g20
g21
sg22
g75
sbsg86
g1
(g17
g3
NtRp196
(dp197
g20
g21
sg22
NsbsS't165'
p198
g1
(g17
g3
NtRp199
(dp200
g20
g21
sg22
g86
sbsS't164'
p201
g1
(g17
g3
NtRp202
(dp203
g20
g21
sg22
S't165'
p204
sbsS't163'
p205
g1
(g17
g3
NtRp206
(dp207
g20
g21
sg22
g86
sbsS't162'
p208
g1
(g17
g3
NtRp209
(dp210
g20
g21
sg22
g86
sbsS't8'
p211
g1
(g17
g3
NtRp212
(dp213
g20
g21
sg22
S't9'
p214
sbsg214
g1
(g17
g3
NtRp215
(dp216
g20
g21
sg22
NsbsS't6'
p217
g1
(g17
g3
NtRp218
(dp219
g20
g21
sg22
g211
sbsS't7'
p220
g1
(g17
g3
NtRp221
(dp222
g20
g21
sg22
g211
sbsS't4'
p223
g1
(g17
g3
NtRp224
(dp225
g20
g21
sg22
g214
sbsS't160'
p226
g1
(g17
g3
NtRp227
(dp228
g20
g21
sg22
g27
sbsS't2'
p229
g1
(g17
g3
NtRp230
(dp231
g20
g21
sg22
S't1'
p232
sbsS't3'
p233
g1
(g17
g3
NtRp234
(dp235
g20
g21
sg22
g214
sbsS't169'
p236
g1
(g17
g3
NtRp237
(dp238
g20
g21
sg22
g86
sbsS't168'
p239
g1
(g17
g3
NtRp240
(dp241
g20
g21
sg22
g75
sbsS't259'
p242
g1
(g17
g3
NtRp243
(dp244
g20
g21
sg22
NsbsS't258'
p245
g1
(g17
g3
NtRp246
(dp247
g20
g21
sg22
g242
sbsS't5'
p248
g1
(g17
g3
NtRp249
(dp250
g20
g21
sg22
g211
sbsS't188'
p251
g1
(g17
g3
NtRp252
(dp253
g20
g21
sg22
S't183'
p254
sbsS't251'
p255
g1
(g17
g3
NtRp256
(dp257
g20
g21
sg22
g132
sbsS't250'
p258
g1
(g17
g3
NtRp259
(dp260
g20
g21
sg22
S't251'
p261
sbsS't253'
p262
g1
(g17
g3
NtRp263
(dp264
g20
g21
sg22
g132
sbsS't252'
p265
g1
(g17
g3
NtRp266
(dp267
g20
g21
sg22
g261
sbsS't255'
p268
g1
(g17
g3
NtRp269
(dp270
g20
g21
sg22
NsbsS't254'
p271
g1
(g17
g3
NtRp272
(dp273
g20
g21
sg22
g268
sbsS't257'
p274
g1
(g17
g3
NtRp275
(dp276
g20
g21
sg22
g268
sbsS't256'
p277
g1
(g17
g3
NtRp278
(dp279
g20
g21
sg22
g268
sbsS't103'
p280
g1
(g17
g3
NtRp281
(dp282
g20
g21
sg22
S't105'
p283
sbsS't264'
p284
g1
(g17
g3
NtRp285
(dp286
g20
g21
sg22
S't266'
p287
sbsS't1'
p288
g1
(g17
g3
NtRp289
(dp290
g20
g21
sg22
g214
sbsS't152'
p291
g1
(g17
g3
NtRp292
(dp293
g20
g21
sg22
S't150'
p294
sbsS't153'
p295
g1
(g17
g3
NtRp296
(dp297
g20
g21
sg22
g291
sbsg294
g1
(g17
g3
NtRp298
(dp299
g20
g21
sg22
S't155'
p300
sbsS't151'
p301
g1
(g17
g3
NtRp302
(dp303
g20
g21
sg22
g291
sbsS't156'
p304
g1
(g17
g3
NtRp305
(dp306
g20
g21
sg22
g300
sbsS't157'
p307
g1
(g17
g3
NtRp308
(dp309
g20
g21
sg22
g27
sbsS't154'
p310
g1
(g17
g3
NtRp311
(dp312
g20
g21
sg22
g294
sbsg300
g1
(g17
g3
NtRp313
(dp314
g20
g21
sg22
Nsbsg27
g1
(g17
g3
NtRp315
(dp316
g20
g21
sg22
NsbsS't159'
p317
g1
(g17
g3
NtRp318
(dp319
g20
g21
sg22
g226
sbsS't189'
p320
g1
(g17
g3
NtRp321
(dp322
g20
g21
sg22
g254
sbsS't14'
p323
g1
(g17
g3
NtRp324
(dp325
g20
g21
sg22
S't13'
p326
sbsS't15'
p327
g1
(g17
g3
NtRp328
(dp329
g20
g21
sg22
S't16'
p330
sbsS't16'
p331
g1
(g17
g3
NtRp332
(dp333
g20
g21
sg22
g323
sbsS't17'
p334
g1
(g17
g3
NtRp335
(dp336
g20
g21
sg22
S't21'
p337
sbsS't10'
p338
g1
(g17
g3
NtRp339
(dp340
g20
g21
sg22
g326
sbsS't11'
p341
g1
(g17
g3
NtRp342
(dp343
g20
g21
sg22
S't12'
p344
sbsg344
g1
(g17
g3
NtRp345
(dp346
g20
g21
sg22
g326
sbsS't13'
p347
g1
(g17
g3
NtRp348
(dp349
g20
g21
sg22
g214
sbsS't61'
p350
g1
(g17
g3
NtRp351
(dp352
g20
g21
sg22
S't60'
p353
sbsS't18'
p354
g1
(g17
g3
NtRp355
(dp356
g20
g21
sg22
S't19'
p357
sbsg357
g1
(g17
g3
NtRp358
(dp359
g20
g21
sg22
g337
sbsS't228'
p360
g1
(g17
g3
NtRp361
(dp362
g20
g21
sg22
S't229'
p363
sbsg363
g1
(g17
g3
NtRp364
(dp365
g20
g21
sg22
S't225'
p366
sbsS't224'
p367
g1
(g17
g3
NtRp368
(dp369
g20
g21
sg22
g366
sbsg366
g1
(g17
g3
NtRp370
(dp371
g20
g21
sg22
S't223'
p372
sbsS't226'
p373
g1
(g17
g3
NtRp374
(dp375
g20
g21
sg22
g366
sbsS't227'
p376
g1
(g17
g3
NtRp377
(dp378
g20
g21
sg22
g363
sbsS't220'
p379
g1
(g17
g3
NtRp380
(dp381
g20
g21
sg22
g16
sbsS't221'
p382
g1
(g17
g3
NtRp383
(dp384
g20
g21
sg22
g379
sbsS't222'
p385
g1
(g17
g3
NtRp386
(dp387
g20
g21
sg22
g254
sbsg372
g1
(g17
g3
NtRp388
(dp389
g20
g21
sg22
g152
sbsS't149'
p390
g1
(g17
g3
NtRp391
(dp392
g20
g21
sg22
g294
sbsS't148'
p393
g1
(g17
g3
NtRp394
(dp395
g20
g21
sg22
g300
sbsS't145'
p396
g1
(g17
g3
NtRp397
(dp398
g20
g21
sg22
S't139'
p399
sbsS't144'
p400
g1
(g17
g3
NtRp401
(dp402
g20
g21
sg22
S't141'
p403
sbsS't147'
p404
g1
(g17
g3
NtRp405
(dp406
g20
g21
sg22
S't148'
p407
sbsS't146'
p408
g1
(g17
g3
NtRp409
(dp410
g20
g21
sg22
g407
sbsg403
g1
(g17
g3
NtRp411
(dp412
g20
g21
sg22
S't140'
p413
sbsg413
g1
(g17
g3
NtRp414
(dp415
g20
g21
sg22
g399
sbsS't143'
p416
g1
(g17
g3
NtRp417
(dp418
g20
g21
sg22
g400
sbsS't142'
p419
g1
(g17
g3
NtRp420
(dp421
g20
g21
sg22
g403
sbsS't29'
p422
g1
(g17
g3
NtRp423
(dp424
g20
g21
sg22
S't27'
p425
sbsS't28'
p426
g1
(g17
g3
NtRp427
(dp428
g20
g21
sg22
g425
sbsg337
g1
(g17
g3
NtRp429
(dp430
g20
g21
sg22
S't22'
p431
sbsS't20'
p432
g1
(g17
g3
NtRp433
(dp434
g20
g21
sg22
g337
sbsS't23'
p435
g1
(g17
g3
NtRp436
(dp437
g20
g21
sg22
g431
sbsS't22'
p438
g1
(g17
g3
NtRp439
(dp440
g20
g21
sg22
g323
sbsS't25'
p441
g1
(g17
g3
NtRp442
(dp443
g20
g21
sg22
S't26'
p444
sbsS't24'
p445
g1
(g17
g3
NtRp446
(dp447
g20
g21
sg22
g214
sbsg425
g1
(g17
g3
NtRp448
(dp449
g20
g21
sg22
g444
sbsg444
g1
(g17
g3
NtRp450
(dp451
g20
g21
sg22
NsbsS't49'
p452
g1
(g17
g3
NtRp453
(dp454
g20
g21
sg22
g119
sbsS't48'
p455
g1
(g17
g3
NtRp456
(dp457
g20
g21
sg22
S't46'
p458
sbsS't43'
p459
g1
(g17
g3
NtRp460
(dp461
g20
g21
sg22
S't42'
p462
sbsg462
g1
(g17
g3
NtRp463
(dp464
g20
g21
sg22
S't45'
p465
sbsS't41'
p466
g1
(g17
g3
NtRp467
(dp468
g20
g21
sg22
g444
sbsS't40'
p469
g1
(g17
g3
NtRp470
(dp471
g20
g21
sg22
S't38'
p472
sbsS't47'
p473
g1
(g17
g3
NtRp474
(dp475
g20
g21
sg22
g458
sbsg458
g1
(g17
g3
NtRp476
(dp477
g20
g21
sg22
NsbsS't45'
p478
g1
(g17
g3
NtRp479
(dp480
g20
g21
sg22
g458
sbsS't44'
p481
g1
(g17
g3
NtRp482
(dp483
g20
g21
sg22
g465
sbsS't197'
p484
g1
(g17
g3
NtRp485
(dp486
g20
g21
sg22
g93
sbsg152
g1
(g17
g3
NtRp487
(dp488
g20
g21
sg22
NsbsS't238'
p489
g1
(g17
g3
NtRp490
(dp491
g20
g21
sg22
g152
sbsS't237'
p492
g1
(g17
g3
NtRp493
(dp494
g20
g21
sg22
g152
sbsS't236'
p495
g1
(g17
g3
NtRp496
(dp497
g20
g21
sg22
S't234'
p498
sbsS't235'
p499
g1
(g17
g3
NtRp500
(dp501
g20
g21
sg22
g495
sbsg498
g1
(g17
g3
NtRp502
(dp503
g20
g21
sg22
S't232'
p504
sbsS't233'
p505
g1
(g17
g3
NtRp506
(dp507
g20
g21
sg22
g504
sbsS't232'
p508
g1
(g17
g3
NtRp509
(dp510
g20
g21
sg22
g363
sbsS't231'
p511
g1
(g17
g3
NtRp512
(dp513
g20
g21
sg22
g504
sbsS't230'
p514
g1
(g17
g3
NtRp515
(dp516
g20
g21
sg22
S't231'
p517
sbsS't138'
p518
g1
(g17
g3
NtRp519
(dp520
g20
g21
sg22
S't136'
p521
sbsg399
g1
(g17
g3
NtRp522
(dp523
g20
g21
sg22
NsbsS't193'
p524
g1
(g17
g3
NtRp525
(dp526
g20
g21
sg22
S't194'
p527
sbsS't198'
p528
g1
(g17
g3
NtRp529
(dp530
g20
g21
sg22
g484
sbsS't130'
p531
g1
(g17
g3
NtRp532
(dp533
g20
g21
sg22
S't131'
p534
sbsg534
g1
(g17
g3
NtRp535
(dp536
g20
g21
sg22
NsbsS't132'
p537
g1
(g17
g3
NtRp538
(dp539
g20
g21
sg22
g534
sbsS't133'
p540
g1
(g17
g3
NtRp541
(dp542
g20
g21
sg22
g534
sbsS't134'
p543
g1
(g17
g3
NtRp544
(dp545
g20
g21
sg22
S't135'
p546
sbsS't135'
p547
g1
(g17
g3
NtRp548
(dp549
g20
g21
sg22
g399
sbsS't136'
p550
g1
(g17
g3
NtRp551
(dp552
g20
g21
sg22
g546
sbsS't137'
p553
g1
(g17
g3
NtRp554
(dp555
g20
g21
sg22
g518
sbsS't196'
p556
g1
(g17
g3
NtRp557
(dp558
g20
g21
sg22
g93
sbsg472
g1
(g17
g3
NtRp559
(dp560
g20
g21
sg22
S't37'
p561
sbsS't39'
p562
g1
(g17
g3
NtRp563
(dp564
g20
g21
sg22
g469
sbsS't36'
p565
g1
(g17
g3
NtRp566
(dp567
g20
g21
sg22
g561
sbsg561
g1
(g17
g3
NtRp568
(dp569
g20
g21
sg22
S't35'
p570
sbsS't34'
p571
g1
(g17
g3
NtRp572
(dp573
g20
g21
sg22
g444
sbsS't35'
p574
g1
(g17
g3
NtRp575
(dp576
g20
g21
sg22
g444
sbsS't32'
p577
g1
(g17
g3
NtRp578
(dp579
g20
g21
sg22
S't33'
p580
sbsS't33'
p581
g1
(g17
g3
NtRp582
(dp583
g20
g21
sg22
g422
sbsS't30'
p584
g1
(g17
g3
NtRp585
(dp586
g20
g21
sg22
g472
sbsS't31'
p587
g1
(g17
g3
NtRp588
(dp589
g20
g21
sg22
g577
sbsg104
g1
(g17
g3
NtRp590
(dp591
g20
g21
sg22
S't55'
p592
sbsS't59'
p593
g1
(g17
g3
NtRp594
(dp595
g20
g21
sg22
g104
sbsS't66'
p596
g1
(g17
g3
NtRp597
(dp598
g20
g21
sg22
S't63'
p599
sbsg119
g1
(g17
g3
NtRp600
(dp601
g20
g21
sg22
NsbsS't51'
p602
g1
(g17
g3
NtRp603
(dp604
g20
g21
sg22
S't52'
p605
sbsS't52'
p606
g1
(g17
g3
NtRp607
(dp608
g20
g21
sg22
g119
sbsS't53'
p609
g1
(g17
g3
NtRp610
(dp611
g20
g21
sg22
g605
sbsS't54'
p612
g1
(g17
g3
NtRp613
(dp614
g20
g21
sg22
S't53'
p615
sbsS't55'
p616
g1
(g17
g3
NtRp617
(dp618
g20
g21
sg22
g605
sbsS't56'
p619
g1
(g17
g3
NtRp620
(dp621
g20
g21
sg22
g104
sbsS't57'
p622
g1
(g17
g3
NtRp623
(dp624
g20
g21
sg22
g104
sbsS't208'
p625
g1
(g17
g3
NtRp626
(dp627
g20
g21
sg22
S't213'
p628
sbsS't209'
p629
g1
(g17
g3
NtRp630
(dp631
g20
g21
sg22
g628
sbsS't63'
p632
g1
(g17
g3
NtRp633
(dp634
g20
g21
sg22
g350
sbsS't202'
p635
g1
(g17
g3
NtRp636
(dp637
g20
g21
sg22
S't200'
p638
sbsS't203'
p639
g1
(g17
g3
NtRp640
(dp641
g20
g21
sg22
g93
sbsg638
g1
(g17
g3
NtRp642
(dp643
g20
g21
sg22
g93
sbsS't201'
p644
g1
(g17
g3
NtRp645
(dp646
g20
g21
sg22
g635
sbsg23
g1
(g17
g3
NtRp647
(dp648
g20
g21
sg22
S't204'
p649
sbsS't207'
p650
g1
(g17
g3
NtRp651
(dp652
g20
g21
sg22
g628
sbsg649
g1
(g17
g3
NtRp653
(dp654
g20
g21
sg22
g93
sbsS't205'
p655
g1
(g17
g3
NtRp656
(dp657
g20
g21
sg22
g23
sbsS't129'
p658
g1
(g17
g3
NtRp659
(dp660
g20
g21
sg22
g534
sbsS't128'
p661
g1
(g17
g3
NtRp662
(dp663
g20
g21
sg22
S't112'
p664
sbsS't123'
p665
g1
(g17
g3
NtRp666
(dp667
g20
g21
sg22
S't115'
p668
sbsS't122'
p669
g1
(g17
g3
NtRp670
(dp671
g20
g21
sg22
S't120'
p672
sbsS't121'
p673
g1
(g17
g3
NtRp674
(dp675
g20
g21
sg22
g672
sbsS't120'
p676
g1
(g17
g3
NtRp677
(dp678
g20
g21
sg22
g665
sbsS't127'
p679
g1
(g17
g3
NtRp680
(dp681
g20
g21
sg22
S't126'
p682
sbsg682
g1
(g17
g3
NtRp683
(dp684
g20
g21
sg22
S't125'
p685
sbsg685
g1
(g17
g3
NtRp686
(dp687
g20
g21
sg22
S't124'
p688
sbsS't124'
p689
g1
(g17
g3
NtRp690
(dp691
g20
g21
sg22
g665
sbsS't215'
p692
g1
(g17
g3
NtRp693
(dp694
g20
g21
sg22
g23
sbsS't214'
p695
g1
(g17
g3
NtRp696
(dp697
g20
g21
sg22
g23
sbsS't217'
p698
g1
(g17
g3
NtRp699
(dp700
g20
g21
sg22
g23
sbsS't216'
p701
g1
(g17
g3
NtRp702
(dp703
g20
g21
sg22
S't215'
p704
sbsS't69'
p705
g1
(g17
g3
NtRp706
(dp707
g20
g21
sg22
g101
sbsS't68'
p708
g1
(g17
g3
NtRp709
(dp710
g20
g21
sg22
S't69'
p711
sbsS't213'
p712
g1
(g17
g3
NtRp713
(dp714
g20
g21
sg22
g23
sbsS't212'
p715
g1
(g17
g3
NtRp716
(dp717
g20
g21
sg22
g628
sbsS't65'
p718
g1
(g17
g3
NtRp719
(dp720
g20
g21
sg22
g599
sbsS't64'
p721
g1
(g17
g3
NtRp722
(dp723
g20
g21
sg22
g718
sbsS't194'
p724
g1
(g17
g3
NtRp725
(dp726
g20
g21
sg22
S't192'
p727
sbsS't195'
p728
g1
(g17
g3
NtRp729
(dp730
g20
g21
sg22
g727
sbsg727
g1
(g17
g3
NtRp731
(dp732
g20
g21
sg22
g320
sbsS't60'
p733
g1
(g17
g3
NtRp734
(dp735
g20
g21
sg22
S't59'
p736
sbsS't190'
p737
g1
(g17
g3
NtRp738
(dp739
g20
g21
sg22
g727
sbsS't191'
p740
g1
(g17
g3
NtRp741
(dp742
g20
g21
sg22
g727
sbsS't116'
p743
g1
(g17
g3
NtRp744
(dp745
g20
g21
sg22
g664
sbsS't117'
p746
g1
(g17
g3
NtRp747
(dp748
g20
g21
sg22
g743
sbsS't114'
p749
g1
(g17
g3
NtRp750
(dp751
g20
g21
sg22
g664
sbsS't115'
p752
g1
(g17
g3
NtRp753
(dp754
g20
g21
sg22
g743
sbsg664
g1
(g17
g3
NtRp755
(dp756
g20
g21
sg22
NsbsS't113'
p757
g1
(g17
g3
NtRp758
(dp759
g20
g21
sg22
g749
sbsS't110'
p760
g1
(g17
g3
NtRp761
(dp762
g20
g21
sg22
g664
sbsS't111'
p763
g1
(g17
g3
NtRp764
(dp765
g20
g21
sg22
g664
sbsS't199'
p766
g1
(g17
g3
NtRp767
(dp768
g20
g21
sg22
g93
sbsS't211'
p769
g1
(g17
g3
NtRp770
(dp771
g20
g21
sg22
g628
sbsS't119'
p772
g1
(g17
g3
NtRp773
(dp774
g20
g21
sg22
g743
sbsS't105'
p775
g1
(g17
g3
NtRp776
(dp777
g20
g21
sg22
S't101'
p778
sbsS't118'
p779
g1
(g17
g3
NtRp780
(dp781
g20
g21
sg22
S't117'
p782
sbsS't260'
p783
g1
(g17
g3
NtRp784
(dp785
g20
g21
sg22
g242
sbsS't261'
p786
g1
(g17
g3
NtRp787
(dp788
g20
g21
sg22
g242
sbsS't262'
p789
g1
(g17
g3
NtRp790
(dp791
g20
g21
sg22
g284
sbsS't263'
p792
g1
(g17
g3
NtRp793
(dp794
g20
g21
sg22
g284
sbsS't62'
p795
g1
(g17
g3
NtRp796
(dp797
g20
g21
sg22
g599
sbsS't265'
p798
g1
(g17
g3
NtRp799
(dp800
g20
g21
sg22
g287
sbsg287
g1
(g17
g3
NtRp801
(dp802
g20
g21
sg22
NsbsS't181'
p803
g1
(g17
g3
NtRp804
(dp805
g20
g21
sg22
g254
sbsS't180'
p806
g1
(g17
g3
NtRp807
(dp808
g20
g21
sg22
g254
sbsg254
g1
(g17
g3
NtRp809
(dp810
g20
g21
sg22
NsbsS't182'
p811
g1
(g17
g3
NtRp812
(dp813
g20
g21
sg22
g254
sbsS't185'
p814
g1
(g17
g3
NtRp815
(dp816
g20
g21
sg22
g254
sbsS't184'
p817
g1
(g17
g3
NtRp818
(dp819
g20
g21
sg22
g254
sbsS't187'
p820
g1
(g17
g3
NtRp821
(dp822
g20
g21
sg22
S't185'
p823
sbsS't186'
p824
g1
(g17
g3
NtRp825
(dp826
g20
g21
sg22
S't187'
p827
sbsg778
g1
(g17
g3
NtRp828
(dp829
g20
g21
sg22
g165
sbsS't100'
p830
g1
(g17
g3
NtRp831
(dp832
g20
g21
sg22
g169
sbsS't210'
p833
g1
(g17
g3
NtRp834
(dp835
g20
g21
sg22
g628
sbsS't102'
p836
g1
(g17
g3
NtRp837
(dp838
g20
g21
sg22
g283
sbsS't67'
p839
g1
(g17
g3
NtRp840
(dp841
g20
g21
sg22
S't68'
p842
sbsS't104'
p843
g1
(g17
g3
NtRp844
(dp845
g20
g21
sg22
g283
sbsS't107'
p846
g1
(g17
g3
NtRp847
(dp848
g20
g21
sg22
g172
sbsS't106'
p849
g1
(g17
g3
NtRp850
(dp851
g20
g21
sg22
g283
sbsS't109'
p852
g1
(g17
g3
NtRp853
(dp854
g20
g21
sg22
g664
sbsS't108'
p855
g1
(g17
g3
NtRp856
(dp857
g20
g21
sg22
g664
sbsS't219'
p858
g1
(g17
g3
NtRp859
(dp860
g20
g21
sg22
g16
sbssS'deps'
p861
(dp862
g28
(dp863
g32
S'NMOD'
p864
ssg31
(dp865
S't89'
p866
S'CONJ'
p867
ssg37
(dp868
S't87'
p869
S'COORD'
p870
sg40
S'NMOD'
p871
sg182
S'P'
ssg46
(dp872
g43
S'DEP'
p873
sg57
S'SBJ'
p874
ssg50
(dp875
g47
S'OBJ'
p876
ssg53
(dp877
S't82'
p878
S'CONJ'
p879
ssg56
(dp880
g123
S'NMOD'
p881
sg126
S'NMOD'
p882
sS't81'
p883
S'COORD'
p884
sg120
S'NMOD'
p885
ssg63
(dp886
g60
S'DEP'
p887
sg64
S'DEP'
p888
sg67
S'P'
sg87
S'P'
ssg72
(dp889
g80
S'PMOD'
p890
ssg79
(dp891
g76
S'NMOD'
p892
ssg97
(dp893
g94
S'NMOD'
p894
ssg101
(dp895
g105
S'OBJ'
p896
sg705
S'SBJ'
p897
ssg100
(dp898
S't73'
p899
S'PMOD'
p900
ssg111
(dp901
g108
S'SUFFIX'
p902
ssg115
(dp903
g112
S'NMOD'
p904
ssg132
(dp905
g135
S'ADV'
p906
sg138
S'P'
sg255
S'OBJ'
p907
sg262
S'P'
sg129
S'SBJ'
p908
ssg148
(dp909
g145
S'NMOD'
p910
ssg144
(dp911
g141
S'NMOD'
p912
sg153
S'NMOD'
p913
ssg159
(dp914
g156
S'NMOD'
p915
ssg169
(dp916
g830
S'CONJ'
p917
ssg176
(dp918
g173
S'NMOD'
p919
ssg179
(dp920
S't96'
p921
S'AMOD'
p922
ssg172
(dp923
S't94'
p924
S'COORD'
p925
sg846
S'P'
sg185
S'DEP'
p926
sg188
S'NMOD'
p927
ssg86
(dp928
g198
S'SBJ'
p929
sg205
S'P'
sg208
S'TMP'
p930
sg236
S'OBJ'
p931
sg83
S'P'
ssg204
(dp932
g201
S'NMOD'
p933
ssg211
(dp934
g217
S'NAME'
p935
sg220
S'NAME'
p936
sg248
S'NMOD'
p937
ssg226
(dp938
g317
S'NMOD'
p939
ssg214
(dp940
g445
S'P'
sS't8'
p941
S'SBJ'
p942
sg347
S'OBJ'
p943
sg223
S'P'
sg233
S'TMP'
p944
sg288
S'LOC'
p945
ssg75
(dp946
g193
S'NMOD'
p947
sS't170'
p948
S'NMOD'
p949
sg239
S'NMOD'
p950
ssg232
(dp951
g229
S'PMOD'
p952
ssg242
(dp953
g783
S'OBJ'
p954
sg245
S'SBJ'
p955
sg786
S'P'
ssg261
(dp956
g258
S'SBJ'
p957
sg265
S'SBJ'
p958
ssg268
(dp959
g271
S'SBJ'
p960
sg274
S'P'
sg277
S'ADV'
p961
ssg291
(dp962
g295
S'OBJ'
p963
sg301
S'SBJ'
p964
ssg294
(dp965
S't152'
p966
S'SUB'
p967
sg390
S'P'
sg310
S'P'
ssg300
(dp968
S't150'
p969
S'PRN'
p970
sg304
S'P'
sg393
S'NMOD'
p971
ssg27
(dp972
g307
S'SBJ'
p973
sg24
S'P'
sS't160'
p974
S'PRD'
p975
ssg323
(dp976
g331
S'PMOD'
p977
sg438
S'PMOD'
p978
ssg330
(dp979
g327
S'NMOD'
p980
ssg344
(dp981
g341
S'NMOD'
p982
ssg326
(dp983
S't14'
p984
S'NMOD'
p985
sg338
S'NMOD'
p986
sS't12'
p987
S'NMOD'
p988
ssg357
(dp989
g354
S'NAME'
p990
ssg363
(dp991
g376
S'TMP'
p992
sg360
S'SBJ'
p993
sg508
S'PRD'
p994
ssg366
(dp995
g367
S'NMOD'
p996
sg373
S'P'
sS't229'
p997
S'NMOD'
p998
ssg379
(dp999
g382
S'PMOD'
p1000
ssg372
(dp1001
S't225'
p1002
S'PMOD'
p1003
ssg407
(dp1004
g404
S'NMOD'
p1005
sg408
S'NMOD'
p1006
ssg400
(dp1007
g416
S'NMOD'
p1008
ssg403
(dp1009
S't144'
p1010
S'OBJ'
p1011
sg419
S'OBJ'
p1012
ssg413
(dp1013
S't141'
p1014
S'IM'
p1015
ssg422
(dp1016
g581
S'PMOD'
p1017
ssg337
(dp1018
g432
S'NMOD'
p1019
sg334
S'NMOD'
p1020
sS't19'
p1021
S'NMOD'
p1022
ssg431
(dp1023
S't21'
p1024
S'SBJ'
p1025
sg435
S'DIR'
p1026
ssg425
(dp1027
S't29'
p1028
S'NMOD'
p1029
sg426
S'NMOD'
p1030
ssg444
(dp1031
g571
S'P'
sg574
S'COORD'
p1032
sg441
S'SBJ'
p1033
sg466
S'P'
sS't27'
p1034
S'VC'
p1035
ssg462
(dp1036
g459
S'SUFFIX'
p1037
ssg469
(dp1038
g562
S'NMOD'
p1039
ssg458
(dp1040
g455
S'P'
sg473
S'OBJ'
p1041
sg478
S'SBJ'
p1042
ssg465
(dp1043
S't42'
p1044
S'NMOD'
p1045
sg481
S'NAME'
p1046
ssg152
(dp1047
g492
S'P'
sS't241'
p1048
S'SBJ'
p1049
sg489
S'SBJ'
p1050
sg149
S'P'
sS't223'
p1051
S'TMP'
p1052
ssg495
(dp1053
g499
S'NMOD'
p1054
ssg498
(dp1055
S't236'
p1056
S'OBJ'
p1057
ssg504
(dp1058
S't234'
p1059
S'VC'
p1060
sg505
S'ADV'
p1061
sg511
S'SBJ'
p1062
ssg517
(dp1063
g514
S'NMOD'
p1064
ssg518
(dp1065
g553
S'NMOD'
p1066
ssg399
(dp1067
g396
S'P'
sg547
S'SBJ'
p1068
sS't140'
p1069
S'OPRD'
p1070
ssg534
(dp1071
g531
S'ADV'
p1072
sg658
S'SBJ'
p1073
sg540
S'P'
sg537
S'DIR'
p1074
ssg546
(dp1075
g543
S'NMOD'
p1076
sg550
S'LOC'
p1077
ssg521
(dp1078
S't138'
p1079
S'PMOD'
p1080
ssg472
(dp1081
S't40'
p1082
S'OBJ'
p1083
sg584
S'PRP'
p1084
ssg561
(dp1085
g565
S'SBJ'
p1086
sS't38'
p1087
S'VC'
p1088
ssg570
(dp1089
S't37'
p1090
S'CONJ'
p1091
ssg577
(dp1092
g587
S'NMOD'
p1093
ssg580
(dp1094
S't32'
p1095
S'SBJ'
p1096
ssg104
(dp1097
g593
S'NMOD'
p1098
sS't70'
p1099
S'NMOD'
p1100
sg619
S'NMOD'
p1101
sg622
S'NMOD'
p1102
ssg736
(dp1103
g733
S'PMOD'
p1104
ssg119
(dp1105
g452
S'SBJ'
p1106
sg606
S'PRD'
p1107
sg116
S'P'
ssg727
(dp1108
g724
S'OBJ'
p1109
sg728
S'OPRD'
p1110
sg737
S'TMP'
p1111
sg740
S'SBJ'
p1112
ssg605
(dp1113
g602
S'NMOD'
p1114
sg609
S'NMOD'
p1115
sg616
S'LOC'
p1116
ssg615
(dp1117
g612
S'PMOD'
p1118
ssg592
(dp1119
S't58'
p1120
S'PMOD'
p1121
ssg16
(dp1122
S't220'
p1123
S'DIR'
p1124
sg858
S'PRT'
p1125
ssg635
(dp1126
g644
S'NMOD'
p1127
ssg638
(dp1128
S't202'
p1129
S'PMOD'
p1130
ssg23
(dp1131
g692
S'ADV'
p1132
sg695
S'P'
sg698
S'P'
sg712
S'PRD'
p1133
sS't218'
p1134
S'ADV'
p1135
sg655
S'SBJ'
p1136
ssg649
(dp1137
S't206'
p1138
S'CONJ'
p1139
ssg665
(dp1140
g676
S'NMOD'
p1141
sg689
S'COORD'
p1142
ssg672
(dp1143
g669
S'DEP'
p1144
sg673
S'DEP'
p1145
ssg682
(dp1146
g679
S'PMOD'
p1147
ssg685
(dp1148
S't126'
p1149
S'NMOD'
p1150
ssg688
(dp1151
S't125'
p1152
S'CONJ'
p1153
ssg704
(dp1154
g701
S'PMOD'
p1155
ssg711
(dp1156
g708
S'NMOD'
p1157
ssg842
(dp1158
g839
S'NMOD'
p1159
ssg628
(dp1160
g625
S'NMOD'
p1161
sg629
S'NMOD'
p1162
sg769
S'DEP'
p1163
sg833
S'P'
sg715
S'P'
sg650
S'NMOD'
p1164
ssg718
(dp1165
g721
S'NAME'
p1166
ssg484
(dp1167
g528
S'PMOD'
p1168
ssg527
(dp1169
g524
S'NMOD'
p1170
ssg93
(dp1171
S't204'
p1172
S'COORD'
p1173
sg766
S'P'
sg556
S'DIR'
p1174
sS't197'
p1175
S'DIR'
p1176
sS't200'
p1177
S'DIR'
p1178
sg90
S'SBJ'
p1179
sg639
S'P'
ssg350
(dp1180
g632
S'CONJ'
p1181
ssg353
(dp1182
S't61'
p1183
S'COORD'
p1184
ssg599
(dp1185
S't65'
p1186
S'APPO'
p1187
sg596
S'POSTHON'
p1188
sg795
S'NMOD'
p1189
ssg743
(dp1190
g746
S'AMOD'
p1191
sg752
S'AMOD'
p1192
sg772
S'LOC'
p1193
ssg782
(dp1194
g779
S'PMOD'
p1195
ssg749
(dp1196
g757
S'NMOD'
p1197
ssg668
(dp1198
S't123'
p1199
S'PMOD'
p1200
ssg664
(dp1201
S't116'
p1202
S'OPRD'
p1203
sS't114'
p1204
S'OBJ'
p1205
sg661
S'P'
sg760
S'SBJ'
p1206
sg763
S'ADV'
p1207
sg852
S'P'
sg855
S'DEP'
p1208
ssg320
(dp1209
S't192'
p1210
S'CONJ'
p1211
ssg284
(dp1212
g789
S'NAME'
p1213
sg792
S'NAME'
p1214
ssg287
(dp1215
S't264'
p1216
S'NMOD'
p1217
sg798
S'NMOD'
p1218
ssg254
(dp1219
S't189'
p1220
S'COORD'
p1221
sg251
S'P'
sg803
S'SBJ'
p1222
sg806
S'P'
sg811
S'ADV'
p1223
sg814
S'LOC'
p1224
sg817
S'PRT'
p1225
sg385
S'P'
ssg823
(dp1226
g820
S'PMOD'
p1227
ssg827
(dp1228
g824
S'NMOD'
p1229
ssg778
(dp1230
g775
S'PMOD'
p1231
ssg165
(dp1232
S't101'
p1233
S'NMOD'
p1234
sS't97'
p1235
S'NMOD'
p1236
sg162
S'P'
sg166
S'NMOD'
p1237
ssg283
(dp1238
g280
S'NMOD'
p1239
sg836
S'NMOD'
p1240
sg843
S'NMOD'
p1241
sg849
S'PRT'
p1242
sssbsS'pre_processed_text'
p1243
(dp1244
I1
(lp1245
(dp1246
S'pos_tag'
p1247
S'IN'
p1248
sS'semantic_roles'
p1249
(lp1250
S'AM-LOC'
p1251
asS'ner_tag'
p1252
S'NONE'
p1253
sS'preposition_tokens'
p1254
(lp1255
S'released'
p1256
asS'is_main_verb'
p1257
I00
sS'grammar_categories'
p1258
(dp1259
I0
S'IN'
p1260
sI1
S'PP'
p1261
sI2
S'S'
ssS'semantic_role'
p1262
g1250
sS'token_offset'
p1263
I0
sS'lemma'
p1264
S'in'
p1265
sS'token'
p1266
S'In'
p1267
sS'ne_id'
p1268
I0
sS'tense'
p1269
S'PRESENT'
p1270
sS'sentence_num'
p1271
I1
sS'predicate_ids'
p1272
(lp1273
S'pr1'
p1274
asS'ne_chunk'
p1275
S'NULL'
p1276
sS'role_id'
p1277
(lp1278
S'rl1'
p1279
asS'char_start_offset'
p1280
I0
sS'id'
p1281
S'w1'
p1282
sS'head_token'
p1283
(lp1284
I01
asS'char_end_offset'
p1285
I1
sa(dp1286
g1247
S'NNP'
p1287
sg1249
(lp1288
g1251
asS'ne_chunk_ids'
p1289
(lp1290
S'w2'
p1291
asg1252
S'LOC'
p1292
sg1254
(lp1293
g1256
asg1268
S'e1'
p1294
sg1258
(dp1295
I0
S'NNP'
p1296
sI1
S'NP'
p1297
sI2
g1261
sI3
S'S'
ssg1262
g1288
sg1257
I00
sg1263
I1
sg1264
S'Washington'
p1298
sg1266
S'Washington'
p1299
sg1269
g1270
sg1271
I1
sg1272
(lp1300
g1274
asg1275
g1299
sg1277
(lp1301
g1279
asg1280
I3
sg1281
S'w2'
p1302
sg1283
(lp1303
I00
asg1285
I12
sa(dp1304
g1247
S'NN'
p1305
sg1249
(lp1306
S'AM-TMP'
p1307
asg1252
g1253
sg1254
(lp1308
g1256
asg1257
I00
sg1258
(dp1309
I0
S'NN'
p1310
sI1
S'NP'
p1311
sI2
S'S'
ssg1262
g1306
sg1263
I2
sg1264
S'today'
p1312
sg1266
S'today'
p1313
sg1268
I14
sg1269
g1270
sg1271
I1
sg1272
(lp1314
g1274
asg1275
g1276
sg1277
(lp1315
S'rl2'
p1316
asg1280
I14
sg1281
S'w3'
p1317
sg1283
(lp1318
I01
asg1285
I18
sa(dp1319
g1247
S','
sg1252
g1253
sg1257
I00
sg1258
(dp1320
I0
S','
sI1
S'S'
ssg1263
I3
sg1264
S','
sg1266
S','
sg1268
I19
sg1269
g1270
sg1271
I1
sg1275
g1276
sg1280
I19
sg1281
S'w4'
p1321
sg1285
I19
sa(dp1322
g1247
S'DT'
p1323
sg1249
(lp1324
S'A0'
p1325
asg1252
g1253
sg1254
(lp1326
g1256
asg1257
I00
sg1258
(dp1327
I0
S'DT'
p1328
sI1
S'NP'
p1329
sI2
S'S'
ssg1262
g1324
sg1263
I4
sg1264
S'the'
p1330
sg1266
S'the'
p1331
sg1268
I21
sg1269
g1270
sg1271
I1
sg1272
(lp1332
g1274
asg1275
g1276
sg1277
(lp1333
S'rl3'
p1334
asg1280
I21
sg1281
S'w5'
p1335
sg1283
(lp1336
I00
asg1285
I23
sa(dp1337
g1247
S'NNP'
p1338
sg1249
(lp1339
g1325
asg1289
(lp1340
S'w6'
p1341
aS'w7'
p1342
aS'w8'
p1343
asg1252
S'ORG'
p1344
sg1254
(lp1345
g1256
asg1268
S'e2'
p1346
sg1258
(dp1347
I0
S'NNP'
p1348
sI1
g1329
sI2
S'S'
ssg1262
g1339
sg1257
I00
sg1263
I5
sg1264
S'Federal'
p1349
sg1266
S'Federal'
p1350
sg1269
g1270
sg1271
I1
sg1272
(lp1351
g1274
asg1275
S'FederalAviationAdministration'
p1352
sg1277
(lp1353
g1334
asg1280
I25
sg1281
S'w6'
p1354
sg1283
(lp1355
I00
asg1285
I31
sa(dp1356
g1247
S'NNP'
p1357
sg1249
(lp1358
g1325
asg1289
g1340
sg1252
g1344
sg1254
(lp1359
g1256
asg1268
g1346
sg1258
(dp1360
I0
S'NNP'
p1361
sI1
g1329
sI2
S'S'
ssg1262
g1358
sg1257
I00
sg1263
I6
sg1264
S'Aviation'
p1362
sg1266
S'Aviation'
p1363
sg1269
g1270
sg1271
I1
sg1272
(lp1364
g1274
asg1275
S'FederalAviationAdministration'
p1365
sg1277
(lp1366
g1334
asg1280
I33
sg1281
S'w7'
p1367
sg1283
(lp1368
I00
asg1285
I40
sa(dp1369
g1247
S'NNP'
p1370
sg1249
(lp1371
g1325
asg1289
g1340
sg1252
g1344
sg1254
(lp1372
g1256
asg1268
g1346
sg1258
(dp1373
I0
S'NNP'
p1374
sI1
g1329
sI2
S'S'
ssg1262
g1371
sg1257
I00
sg1263
I7
sg1264
S'Administration'
p1375
sg1266
S'Administration'
p1376
sg1269
g1270
sg1271
I1
sg1272
(lp1377
g1274
asg1275
S'FederalAviationAdministration'
p1378
sg1277
(lp1379
g1334
asg1280
I42
sg1281
S'w8'
p1380
sg1283
(lp1381
I01
asg1285
I55
sa(dp1382
g1247
S'VBD'
p1383
sg1252
g1253
sg1257
I01
sg1258
(dp1384
I0
S'VBD'
p1385
sI1
S'VP'
p1386
sI2
S'S'
ssg1263
I8
sg1264
S'release'
p1387
sg1266
g1256
sg1268
I57
sg1269
S'PAST'
p1388
sg1271
I1
sg1275
g1276
sg1280
I57
sg1281
S'w9'
p1389
sg1285
I64
sa(dp1390
g1247
S'NN'
p1391
sg1249
(lp1392
S'A1'
p1393
aS'A1'
p1394
aS'A1'
p1395
asg1252
g1253
sg1254
(lp1396
g1256
aS'control'
p1397
aS'tapes'
p1398
asg1257
I00
sg1258
(dp1399
I0
S'NN'
p1400
sI1
S'NP'
p1401
sI2
g1386
sI3
S'S'
ssg1262
g1392
sg1263
I9
sg1264
S'air'
p1402
sg1266
S'air'
p1403
sg1268
I66
sg1269
g1270
sg1271
I1
sg1272
(lp1404
g1274
aS'pr2'
p1405
aS'pr3'
p1406
asg1275
g1276
sg1277
(lp1407
S'rl4'
p1408
aS'rl5'
p1409
aS'rl8'
p1410
asg1280
I66
sg1281
S'w10'
p1411
sg1283
(lp1412
I00
aI01
aI01
asg1285
I68
sa(dp1413
g1247
S'NN'
p1414
sg1249
(lp1415
g1393
aS'A1'
p1416
aS'A1'
p1417
asg1252
g1253
sg1254
(lp1418
g1256
ag1397
ag1398
asg1257
I00
sg1258
(dp1419
I0
S'NN'
p1420
sI1
g1401
sI2
g1386
sI3
S'S'
ssg1262
g1415
sg1263
I10
sg1264
S'traffic'
p1421
sg1266
S'traffic'
p1422
sg1268
I70
sg1269
g1270
sg1271
I1
sg1272
(lp1423
g1274
ag1405
ag1406
asg1275
g1276
sg1277
(lp1424
g1408
aS'rl6'
p1425
aS'rl9'
p1426
asg1280
I70
sg1281
S'w11'
p1427
sg1283
(lp1428
I00
aI01
aI00
asg1285
I76
sa(dp1429
g1247
S'NN'
p1430
sg1249
(lp1431
g1393
ag1417
asg1252
g1253
sg1254
(lp1432
g1256
ag1398
asg1257
I01
sg1258
(dp1433
I0
S'NN'
p1434
sI1
g1401
sI2
g1386
sI3
S'S'
ssg1262
g1431
sg1263
I11
sg1264
S'control'
p1435
sg1266
g1397
sg1268
I78
sg1269
g1270
sg1271
I1
sg1272
(lp1436
g1274
ag1406
asg1275
g1276
sg1277
(lp1437
g1408
ag1426
asg1280
I78
sg1281
S'w12'
p1438
sg1283
(lp1439
I00
aI01
asg1285
I84
sa(dp1440
g1247
S'NNS'
p1441
sg1249
(lp1442
g1393
asg1252
g1253
sg1254
(lp1443
g1256
asg1257
I01
sg1258
(dp1444
I0
S'NNS'
p1445
sI1
g1401
sI2
g1386
sI3
S'S'
ssg1262
g1442
sg1263
I12
sg1264
S'tape'
p1446
sg1266
g1398
sg1268
I86
sg1269
g1270
sg1271
I1
sg1272
(lp1447
g1274
asg1275
g1276
sg1277
(lp1448
g1408
asg1280
I86
sg1281
S'w13'
p1449
sg1283
(lp1450
I01
asg1285
I90
sa(dp1451
g1247
S'IN'
p1452
sg1249
(lp1453
g1393
aS'A0'
p1454
aS'A0'
p1455
asg1252
g1253
sg1254
(lp1456
g1256
ag1397
ag1398
asg1257
I00
sg1258
(dp1457
I0
S'IN'
p1458
sI1
S'PP'
p1459
sI2
g1386
sI3
S'S'
ssg1262
g1453
sg1263
I13
sg1264
S'from'
p1460
sg1266
S'from'
p1461
sg1268
I92
sg1269
g1270
sg1271
I1
sg1272
(lp1462
g1274
ag1405
ag1406
asg1275
g1276
sg1277
(lp1463
g1408
aS'rl7'
p1464
aS'rl10'
p1465
asg1280
I92
sg1281
S'w14'
p1466
sg1283
(lp1467
I00
aI01
aI01
asg1285
I95
sa(dp1468
g1247
S'DT'
p1469
sg1249
(lp1470
g1393
ag1454
ag1455
asg1252
g1253
sg1254
(lp1471
g1256
ag1397
ag1398
asg1257
I00
sg1258
(dp1472
I0
S'DT'
p1473
sI1
S'NP'
p1474
sI2
g1459
sI3
g1386
sI4
S'S'
ssg1262
g1470
sg1263
I14
sg1264
S'the'
p1475
sg1266
S'the'
p1476
sg1268
I97
sg1269
g1270
sg1271
I1
sg1272
(lp1477
g1274
ag1405
ag1406
asg1275
g1276
sg1277
(lp1478
g1408
ag1464
ag1465
asg1280
I97
sg1281
S'w15'
p1479
sg1283
(lp1480
I00
aI00
aI00
asg1285
I99
sa(dp1481
g1247
S'NN'
p1482
sg1249
(lp1483
g1393
ag1454
ag1455
asg1252
g1253
sg1254
(lp1484
g1256
ag1397
ag1398
asg1257
I00
sg1258
(dp1485
I0
S'NN'
p1486
sI1
g1474
sI2
g1459
sI3
g1386
sI4
S'S'
ssg1262
g1483
sg1263
I15
sg1264
S'night'
p1487
sg1266
S'night'
p1488
sg1268
I101
sg1269
g1270
sg1271
I1
sg1272
(lp1489
g1274
ag1405
ag1406
asg1275
g1276
sg1277
(lp1490
g1408
ag1464
ag1465
asg1280
I101
sg1281
S'w16'
p1491
sg1283
(lp1492
I00
aI00
aI00
asg1285
I105
sa(dp1493
g1247
S'DT'
p1494
sg1249
(lp1495
g1393
ag1454
ag1455
aS'A1'
p1496
asg1252
g1253
sg1254
(lp1497
g1256
ag1397
ag1398
aS'went'
p1498
asg1257
I00
sg1258
(dp1499
I0
S'DT'
p1500
sI1
S'NP'
p1501
sI2
S'S'
sI3
g1386
sI4
S'S'
ssg1262
g1495
sg1263
I16
sg1264
S'the'
p1502
sg1266
S'the'
p1503
sg1268
I107
sg1269
g1270
sg1271
I1
sg1272
(lp1504
g1274
ag1405
ag1406
aS'pr4'
p1505
asg1275
g1276
sg1277
(lp1506
g1408
ag1464
ag1465
aS'rl11'
p1507
asg1280
I107
sg1281
S'w17'
p1508
sg1283
(lp1509
I00
aI00
aI00
aI00
asg1285
I109
sa(dp1510
g1247
S'NNP'
p1511
sg1249
(lp1512
g1393
ag1454
ag1455
ag1496
asg1289
(lp1513
S'w18'
p1514
aS'w19'
p1515
asg1252
S'MISC'
p1516
sg1254
(lp1517
g1256
ag1397
ag1398
ag1498
asg1268
S'e3'
p1518
sg1258
(dp1519
I0
S'NNP'
p1520
sI1
g1501
sI2
S'S'
sI3
g1386
sI4
S'S'
ssg1262
g1512
sg1257
I00
sg1263
I17
sg1264
S'TWA'
p1521
sg1266
S'TWA'
p1522
sg1269
g1270
sg1271
I1
sg1272
(lp1523
g1274
ag1405
ag1406
ag1505
asg1275
S'TWAFlight'
p1524
sg1277
(lp1525
g1408
ag1464
ag1465
ag1507
asg1280
I111
sg1281
S'w18'
p1526
sg1283
(lp1527
I00
aI00
aI00
aI00
asg1285
I113
sa(dp1528
g1247
S'NNP'
p1529
sg1249
(lp1530
g1393
ag1454
ag1455
ag1496
asg1289
g1513
sg1252
g1516
sg1254
(lp1531
g1256
ag1397
ag1398
ag1498
asg1268
g1518
sg1258
(dp1532
I0
S'NNP'
p1533
sI1
g1501
sI2
S'S'
sI3
g1386
sI4
S'S'
ssg1262
g1530
sg1257
I00
sg1263
I18
sg1264
S'Flight'
p1534
sg1266
S'Flight'
p1535
sg1269
g1270
sg1271
I1
sg1272
(lp1536
g1274
ag1405
ag1406
ag1505
asg1275
S'TWAFlight'
p1537
sg1277
(lp1538
g1408
ag1464
ag1465
ag1507
asg1280
I115
sg1281
S'w19'
p1539
sg1283
(lp1540
I00
aI00
aI00
aI00
asg1285
I120
sa(dp1541
g1247
S'CD'
p1542
sg1249
(lp1543
g1393
ag1454
ag1455
ag1496
asg1252
g1253
sg1254
(lp1544
g1256
ag1397
ag1398
ag1498
asg1257
I00
sg1258
(dp1545
I0
S'CD'
p1546
sI1
g1501
sI2
S'S'
sI3
g1386
sI4
S'S'
ssg1262
g1543
sg1263
I19
sg1264
S'eight'
p1547
sg1266
S'eight'
p1548
sg1268
I122
sg1269
g1270
sg1271
I1
sg1272
(lp1549
g1274
ag1405
ag1406
ag1505
asg1275
g1276
sg1277
(lp1550
g1408
ag1464
ag1465
ag1507
asg1280
I122
sg1281
S'w20'
p1551
sg1283
(lp1552
I00
aI00
aI00
aI00
asg1285
I126
sa(dp1553
g1247
S'CD'
p1554
sg1249
(lp1555
g1393
ag1454
ag1455
ag1496
asg1252
g1253
sg1254
(lp1556
g1256
ag1397
ag1398
ag1498
asg1257
I00
sg1258
(dp1557
I0
S'CD'
p1558
sI1
g1501
sI2
S'S'
sI3
g1386
sI4
S'S'
ssg1262
g1555
sg1263
I20
sg1264
S'hundred'
p1559
sg1266
S'hundred'
p1560
sg1268
I128
sg1269
g1270
sg1271
I1
sg1272
(lp1561
g1274
ag1405
ag1406
ag1505
asg1275
g1276
sg1277
(lp1562
g1408
ag1464
ag1465
ag1507
asg1280
I128
sg1281
S'w21'
p1563
sg1283
(lp1564
I00
aI00
aI00
aI01
asg1285
I134
sa(dp1565
g1247
S'VBD'
p1566
sg1249
(lp1567
g1393
ag1454
ag1455
asg1252
g1253
sg1254
(lp1568
g1256
ag1397
ag1398
asg1257
I01
sg1258
(dp1569
I0
S'VBD'
p1570
sI1
S'VP'
p1571
sI2
S'S'
sI3
g1386
sI4
S'S'
ssg1262
g1567
sg1263
I21
sg1264
S'go'
p1572
sg1266
g1498
sg1268
I136
sg1269
g1388
sg1271
I1
sg1272
(lp1573
g1274
ag1405
ag1406
asg1275
g1276
sg1277
(lp1574
g1408
ag1464
ag1465
asg1280
I136
sg1281
S'w22'
p1575
sg1283
(lp1576
I00
aI00
aI00
asg1285
I139
sa(dp1577
g1247
S'RB'
p1578
sg1249
(lp1579
g1393
ag1454
ag1455
aS'AM-DIR'
p1580
asg1252
g1253
sg1254
(lp1581
g1256
ag1397
ag1398
ag1498
asg1257
I00
sg1258
(dp1582
I0
S'RB'
p1583
sI1
S'ADVP'
p1584
sI2
g1571
sI3
S'S'
sI4
g1386
sI5
S'S'
ssg1262
g1579
sg1263
I22
sg1264
S'down'
p1585
sg1266
S'down'
p1586
sg1268
I141
sg1269
g1270
sg1271
I1
sg1272
(lp1587
g1274
ag1405
ag1406
ag1505
asg1275
g1276
sg1277
(lp1588
g1408
ag1464
ag1465
aS'rl12'
p1589
asg1280
I141
sg1281
S'w23'
p1590
sg1283
(lp1591
I00
aI00
aI00
aI01
asg1285
I144
sa(dp1592
g1247
S'.'
sg1252
g1253
sg1257
I00
sg1258
(dp1593
I0
S'.'
sI1
S'S'
ssg1263
I23
sg1264
S'.'
sg1266
S'.'
sg1268
I145
sg1269
g1270
sg1271
I1
sg1275
g1276
sg1280
I145
sg1281
S'w24'
p1594
sg1285
I145
sasI2
(lp1595
(dp1596
g1247
S'EX'
p1597
sg1252
g1253
sg1257
I00
sg1258
(dp1598
I0
S'EX'
p1599
sI1
S'NP'
p1600
sI2
S'S'
sI3
S'S'
ssg1263
I0
sg1264
S'there'
p1601
sg1266
S'There'
p1602
sg1268
I147
sg1269
g1270
sg1271
I2
sg1275
g1276
sg1280
I147
sg1281
S'w25'
p1603
sg1285
I151
sa(dp1604
g1247
S'VBZ'
p1605
sg1252
g1253
sg1257
I00
sg1258
(dp1606
I0
S'VBZ'
p1607
sI1
S'VP'
p1608
sI2
S'S'
sI3
S'S'
ssg1263
I1
sg1264
S'have'
p1609
sg1266
S"'s"
p1610
sg1268
I152
sg1269
g1270
sg1271
I2
sg1275
g1276
sg1280
I152
sg1281
S'w26'
p1611
sg1285
I153
sa(dp1612
g1247
S'NN'
p1613
sg1252
g1253
sg1257
I00
sg1258
(dp1614
I0
S'NN'
p1615
sI1
S'NP'
p1616
sI2
S'NP'
p1617
sI3
g1608
sI4
S'S'
sI5
S'S'
ssg1263
I2
sg1264
S'nothing'
p1618
sg1266
S'nothing'
p1619
sg1268
I155
sg1269
g1270
sg1271
I2
sg1275
g1276
sg1280
I155
sg1281
S'w27'
p1620
sg1285
I161
sa(dp1621
g1247
S'JJ'
p1622
sg1252
g1253
sg1257
I00
sg1258
(dp1623
I0
S'JJ'
p1624
sI1
g1616
sI2
g1617
sI3
g1608
sI4
S'S'
sI5
S'S'
ssg1263
I3
sg1264
S'new'
p1625
sg1266
S'new'
p1626
sg1268
I163
sg1269
g1270
sg1271
I2
sg1275
g1276
sg1280
I163
sg1281
S'w28'
p1627
sg1285
I165
sa(dp1628
g1247
S'IN'
p1629
sg1252
g1253
sg1257
I00
sg1258
(dp1630
I0
S'IN'
p1631
sI1
S'PP'
p1632
sI2
g1617
sI3
g1608
sI4
S'S'
sI5
S'S'
ssg1263
I4
sg1264
S'on'
p1633
sg1266
S'on'
p1634
sg1268
I167
sg1269
g1270
sg1271
I2
sg1275
g1276
sg1280
I167
sg1281
S'w29'
p1635
sg1285
I168
sa(dp1636
g1247
S'WRB'
p1637
sg1249
(lp1638
S'AM-MOD'
p1639
asg1252
g1253
sg1254
(lp1640
S'miss'
p1641
asg1257
I00
sg1258
(dp1642
I0
S'WRB'
p1643
sI1
S'WHADVP'
p1644
sI2
S'SBAR'
p1645
sI3
g1632
sI4
g1617
sI5
g1608
sI6
S'S'
sI7
S'S'
ssg1262
g1638
sg1263
I5
sg1264
S'why'
p1646
sg1266
S'why'
p1647
sg1268
I170
sg1269
g1270
sg1271
I2
sg1272
(lp1648
S'pr6'
p1649
asg1275
g1276
sg1277
(lp1650
S'rl15'
p1651
asg1280
I170
sg1281
S'w30'
p1652
sg1283
(lp1653
I00
asg1285
I172
sa(dp1654
g1247
S'DT'
p1655
sg1249
(lp1656
S'A1'
p1657
asg1252
g1253
sg1254
(lp1658
S'exploded'
p1659
asg1257
I00
sg1258
(dp1660
I0
S'DT'
p1661
sI1
S'NP'
p1662
sI2
S'S'
sI3
g1645
sI4
g1632
sI5
g1617
sI6
g1608
sI7
S'S'
sI8
S'S'
ssg1262
g1656
sg1263
I6
sg1264
S'the'
p1663
sg1266
S'the'
p1664
sg1268
I174
sg1269
g1270
sg1271
I2
sg1272
(lp1665
S'pr5'
p1666
asg1275
g1276
sg1277
(lp1667
S'rl13'
p1668
asg1280
I174
sg1281
S'w31'
p1669
sg1283
(lp1670
I00
asg1285
I176
sa(dp1671
g1247
S'NN'
p1672
sg1249
(lp1673
g1657
asg1252
g1253
sg1254
(lp1674
g1659
asg1257
I00
sg1258
(dp1675
I0
S'NN'
p1676
sI1
g1662
sI2
S'S'
sI3
g1645
sI4
g1632
sI5
g1617
sI6
g1608
sI7
S'S'
sI8
S'S'
ssg1262
g1673
sg1263
I7
sg1264
S'plane'
p1677
sg1266
S'plane'
p1678
sg1268
I178
sg1269
g1270
sg1271
I2
sg1272
(lp1679
g1666
asg1275
g1276
sg1277
(lp1680
g1668
asg1280
I178
sg1281
S'w32'
p1681
sg1283
(lp1682
I01
asg1285
I182
sa(dp1683
g1247
S'VBD'
p1684
sg1252
g1253
sg1257
I01
sg1258
(dp1685
I0
S'VBD'
p1686
sI1
S'VP'
p1687
sI2
S'S'
sI3
g1645
sI4
g1632
sI5
g1617
sI6
g1608
sI7
S'S'
sI8
S'S'
ssg1263
I8
sg1264
S'explode'
p1688
sg1266
g1659
sg1268
I184
sg1269
g1388
sg1271
I2
sg1275
g1276
sg1280
I184
sg1281
S'w33'
p1689
sg1285
I191
sa(dp1690
g1247
S','
sg1252
g1253
sg1257
I00
sg1258
(dp1691
I0
S','
sI1
S'S'
ssg1263
I9
sg1264
S','
sg1266
S','
sg1268
I192
sg1269
g1270
sg1271
I2
sg1275
g1276
sg1280
I192
sg1281
S'w34'
p1692
sg1285
I192
sa(dp1693
g1247
S'CC'
p1694
sg1252
g1253
sg1257
I00
sg1258
(dp1695
I0
S'CC'
p1696
sI1
S'S'
ssg1263
I10
sg1264
S'but'
p1697
sg1266
S'but'
p1698
sg1268
I194
sg1269
g1270
sg1271
I2
sg1275
g1276
sg1280
I194
sg1281
S'w35'
p1699
sg1285
I196
sa(dp1700
g1247
S'PRP'
p1701
sg1249
(lp1702
S'A0'
p1703
ag1639
asg1252
g1253
sg1254
(lp1704
g1641
ag1641
asg1257
I00
sg1258
(dp1705
I0
S'PRP'
p1706
sI1
S'NP'
p1707
sI2
S'S'
sI3
S'S'
ssg1262
g1702
sg1263
I11
sg1264
S'you'
p1708
sg1266
S'you'
p1709
sg1268
I198
sg1269
g1270
sg1271
I2
sg1272
(lp1710
g1649
ag1649
asg1275
g1276
sg1277
(lp1711
S'rl14'
p1712
ag1651
asg1280
I198
sg1281
S'w36'
p1713
sg1283
(lp1714
I01
aI00
asg1285
I200
sa(dp1715
g1247
S'MD'
p1716
sg1249
(lp1717
g1639
asg1252
g1253
sg1254
(lp1718
g1641
asg1257
I00
sg1258
(dp1719
I0
S'MD'
p1720
sI1
S'VP'
p1721
sI2
S'S'
sI3
S'S'
ssg1262
g1717
sg1263
I12
sg1264
S'can'
p1722
sg1266
S'cannot'
p1723
sg1268
I202
sg1269
g1270
sg1271
I2
sg1272
(lp1724
g1649
asg1275
g1276
sg1277
(lp1725
g1651
asg1280
I202
sg1281
S'w37'
p1726
sg1283
(lp1727
I01
asg1285
I207
sa(dp1728
g1247
S'VB'
p1729
sg1249
(lp1730
g1639
asg1252
g1253
sg1254
(lp1731
g1641
asg1257
I01
sg1258
(dp1732
I0
S'VB'
p1733
sI1
S'VP'
p1734
sI2
g1721
sI3
S'S'
sI4
S'S'
ssg1262
g1730
sg1263
I13
sg1264
S'miss'
p1735
sg1266
g1641
sg1268
I209
sg1269
g1270
sg1271
I2
sg1272
(lp1736
g1649
asg1275
g1276
sg1277
(lp1737
g1651
asg1280
I209
sg1281
S'w38'
p1738
sg1283
(lp1739
I00
asg1285
I212
sa(dp1740
g1247
S'DT'
p1741
sg1249
(lp1742
g1639
aS'A1'
p1743
asg1252
g1253
sg1254
(lp1744
g1641
ag1641
asg1257
I00
sg1258
(dp1745
I0
S'DT'
p1746
sI1
S'NP'
p1747
sI2
g1734
sI3
g1721
sI4
S'S'
sI5
S'S'
ssg1262
g1742
sg1263
I14
sg1264
S'the'
p1748
sg1266
S'the'
p1749
sg1268
I214
sg1269
g1270
sg1271
I2
sg1272
(lp1750
g1649
ag1649
asg1275
g1276
sg1277
(lp1751
g1651
aS'rl16'
p1752
asg1280
I214
sg1281
S'w39'
p1753
sg1283
(lp1754
I00
aI00
asg1285
I216
sa(dp1755
g1247
S'NN'
p1756
sg1249
(lp1757
g1639
ag1743
asg1252
g1253
sg1254
(lp1758
g1641
ag1641
asg1257
I00
sg1258
(dp1759
I0
S'NN'
p1760
sI1
g1747
sI2
g1734
sI3
g1721
sI4
S'S'
sI5
S'S'
ssg1262
g1757
sg1263
I15
sg1264
S'moment'
p1761
sg1266
S'moment'
p1762
sg1268
I218
sg1269
g1270
sg1271
I2
sg1272
(lp1763
g1649
ag1649
asg1275
g1276
sg1277
(lp1764
g1651
ag1752
asg1280
I218
sg1281
S'w40'
p1765
sg1283
(lp1766
I00
aI01
asg1285
I223
sa(dp1767
g1247
S'.'
sg1252
g1253
sg1257
I00
sg1258
(dp1768
I0
S'.'
sI1
S'S'
ssg1263
I16
sg1264
S'.'
sg1266
S'.'
sg1268
I224
sg1269
g1270
sg1271
I2
sg1275
g1276
sg1280
I224
sg1281
S'w41'
p1769
sg1285
I224
sasI3
(lp1770
(dp1771
g1247
S'NNP'
p1772
sg1249
(lp1773
S'A0'
p1774
asg1289
(lp1775
S'w42'
p1776
asg1252
S'ORG'
p1777
sg1254
(lp1778
S'has'
p1779
asg1268
S'e4'
p1780
sg1258
(dp1781
I0
S'NNP'
p1782
sI1
S'NP'
p1783
sI2
S'NP'
p1784
sI3
S'S'
ssg1262
g1773
sg1257
I00
sg1263
I0
sg1264
S'ABC'
p1785
sg1266
S'ABC'
p1786
sg1269
g1270
sg1271
I3
sg1272
(lp1787
S'pr7'
p1788
asg1275
g1786
sg1277
(lp1789
S'rl17'
p1790
asg1280
I226
sg1281
S'w42'
p1791
sg1283
(lp1792
I00
asg1285
I228
sa(dp1793
g1247
S'POS'
p1794
sg1249
(lp1795
g1774
asg1252
g1253
sg1254
(lp1796
g1779
asg1257
I00
sg1258
(dp1797
I0
S'POS'
p1798
sI1
g1783
sI2
g1784
sI3
S'S'
ssg1262
g1795
sg1263
I1
sg1264
S"'s"
p1799
sg1266
S"'s"
p1800
sg1268
I229
sg1269
g1270
sg1271
I3
sg1272
(lp1801
g1788
asg1275
g1276
sg1277
(lp1802
g1790
asg1280
I229
sg1281
S'w43'
p1803
sg1283
(lp1804
I00
asg1285
I230
sa(dp1805
g1247
S'NNP'
p1806
sg1249
(lp1807
g1774
asg1289
(lp1808
S'w44'
p1809
aS'w45'
p1810
asg1252
S'PER'
p1811
sg1254
(lp1812
g1779
asg1268
S'e5'
p1813
sg1258
(dp1814
I0
S'NNP'
p1815
sI1
g1784
sI2
S'S'
ssg1262
g1807
sg1257
I00
sg1263
I2
sg1264
S'Lisa'
p1816
sg1266
S'Lisa'
p1817
sg1269
g1270
sg1271
I3
sg1272
(lp1818
g1788
asg1275
S'LisaStark'
p1819
sg1277
(lp1820
g1790
asg1280
I232
sg1281
S'w44'
p1821
sg1283
(lp1822
I00
asg1285
I235
sa(dp1823
g1247
S'NNP'
p1824
sg1249
(lp1825
g1774
asg1289
g1808
sg1252
g1811
sg1254
(lp1826
g1779
asg1268
g1813
sg1258
(dp1827
I0
S'NNP'
p1828
sI1
g1784
sI2
S'S'
ssg1262
g1825
sg1257
I00
sg1263
I3
sg1264
S'Stark'
p1829
sg1266
S'Stark'
p1830
sg1269
g1270
sg1271
I3
sg1272
(lp1831
g1788
asg1275
S'LisaStark'
p1832
sg1277
(lp1833
g1790
asg1280
I237
sg1281
S'w45'
p1834
sg1283
(lp1835
I01
asg1285
I241
sa(dp1836
g1247
S'VBZ'
p1837
sg1252
g1253
sg1257
I01
sg1258
(dp1838
I0
S'VBZ'
p1839
sI1
S'VP'
p1840
sI2
S'S'
ssg1263
I4
sg1264
S'have'
p1841
sg1266
g1779
sg1268
I243
sg1269
g1270
sg1271
I3
sg1275
g1276
sg1280
I243
sg1281
S'w46'
p1842
sg1285
I245
sa(dp1843
g1247
S'JJR'
p1844
sg1249
(lp1845
S'A1'
p1846
asg1252
g1253
sg1254
(lp1847
g1779
asg1257
I00
sg1258
(dp1848
I0
S'JJR'
p1849
sI1
S'NP'
p1850
sI2
g1840
sI3
S'S'
ssg1262
g1845
sg1263
I5
sg1264
S'much'
p1851
sg1266
S'more'
p1852
sg1268
I247
sg1269
g1270
sg1271
I3
sg1272
(lp1853
g1788
asg1275
g1276
sg1277
(lp1854
S'rl18'
p1855
asg1280
I247
sg1281
S'w47'
p1856
sg1283
(lp1857
I01
asg1285
I250
sa(dp1858
g1247
S'.'
sg1252
g1253
sg1257
I00
sg1258
(dp1859
I0
S'.'
sI1
S'S'
ssg1263
I6
sg1264
S'.'
sg1266
S'.'
sg1268
I251
sg1269
g1270
sg1271
I3
sg1275
g1276
sg1280
I251
sg1281
S'w48'
p1860
sg1285
I251
sasI4
(lp1861
(dp1862
g1247
S'EX'
p1863
sg1252
g1253
sg1257
I00
sg1258
(dp1864
I0
S'EX'
p1865
sI1
S'NP'
p1866
sI2
S'S'
ssg1263
I0
sg1264
S'there'
p1867
sg1266
S'There'
p1868
sg1268
I254
sg1269
g1270
sg1271
I4
sg1275
g1276
sg1280
I254
sg1281
S'w49'
p1869
sg1285
I258
sa(dp1870
g1247
S'VBD'
p1871
sg1252
g1253
sg1257
I00
sg1258
(dp1872
I0
S'VBD'
p1873
sI1
S'VP'
p1874
sI2
S'S'
ssg1263
I1
sg1264
S'be'
p1875
sg1266
S'was'
p1876
sg1268
I260
sg1269
g1388
sg1271
I4
sg1275
g1276
sg1280
I260
sg1281
S'w50'
p1877
sg1285
I262
sa(dp1878
g1247
S'DT'
p1879
sg1249
(lp1880
S'AM-NEG'
p1881
asg1252
g1253
sg1254
(lp1882
S'hint'
p1883
asg1257
I00
sg1258
(dp1884
I0
S'DT'
p1885
sI1
S'NP'
p1886
sI2
S'NP'
p1887
sI3
g1874
sI4
S'S'
ssg1262
g1880
sg1263
I2
sg1264
S'no'
p1888
sg1266
S'no'
p1889
sg1268
I264
sg1269
g1270
sg1271
I4
sg1272
(lp1890
S'pr8'
p1891
asg1275
g1276
sg1277
(lp1892
S'rl19'
p1893
asg1280
I264
sg1281
S'w51'
p1894
sg1283
(lp1895
I01
asg1285
I265
sa(dp1896
g1247
S'NN'
p1897
sg1252
g1253
sg1257
I01
sg1258
(dp1898
I0
S'NN'
p1899
sI1
g1886
sI2
g1887
sI3
g1874
sI4
S'S'
ssg1263
I3
sg1264
S'hint'
p1900
sg1266
g1883
sg1268
I267
sg1269
g1270
sg1271
I4
sg1275
g1276
sg1280
I267
sg1281
S'w52'
p1901
sg1285
I270
sa(dp1902
g1247
S'IN'
p1903
sg1249
(lp1904
S'A1'
p1905
asg1252
g1253
sg1254
(lp1906
g1883
asg1257
I00
sg1258
(dp1907
I0
S'IN'
p1908
sI1
S'PP'
p1909
sI2
g1887
sI3
g1874
sI4
S'S'
ssg1262
g1904
sg1263
I4
sg1264
S'of'
p1910
sg1266
S'of'
p1911
sg1268
I272
sg1269
g1270
sg1271
I4
sg1272
(lp1912
g1891
asg1275
g1276
sg1277
(lp1913
S'rl20'
p1914
asg1280
I272
sg1281
S'w53'
p1915
sg1283
(lp1916
I01
asg1285
I273
sa(dp1917
g1247
S'NN'
p1918
sg1249
(lp1919
g1905
asg1252
g1253
sg1254
(lp1920
g1883
asg1257
I01
sg1258
(dp1921
I0
S'NN'
p1922
sI1
S'NP'
p1923
sI2
S'NP'
p1924
sI3
g1909
sI4
g1887
sI5
g1874
sI6
S'S'
ssg1262
g1919
sg1263
I5
sg1264
S'trouble'
p1925
sg1266
S'trouble'
p1926
sg1268
I275
sg1269
g1270
sg1271
I4
sg1272
(lp1927
g1891
asg1275
g1276
sg1277
(lp1928
g1914
asg1280
I275
sg1281
S'w54'
p1929
sg1283
(lp1930
I00
asg1285
I281
sa(dp1931
g1247
S'IN'
p1932
sg1249
(lp1933
S'AM-LOC'
p1934
aS'A0'
p1935
asg1252
g1253
sg1254
(lp1936
g1883
ag1926
asg1257
I00
sg1258
(dp1937
I0
S'IN'
p1938
sI1
S'PP'
p1939
sI2
g1924
sI3
g1909
sI4
g1887
sI5
g1874
sI6
S'S'
ssg1262
g1933
sg1263
I6
sg1264
S'in'
p1940
sg1266
S'in'
p1941
sg1268
I283
sg1269
g1270
sg1271
I4
sg1272
(lp1942
g1891
aS'pr9'
p1943
asg1275
g1276
sg1277
(lp1944
S'rl21'
p1945
aS'rl22'
p1946
asg1280
I283
sg1281
S'w55'
p1947
sg1283
(lp1948
I01
aI01
asg1285
I284
sa(dp1949
g1247
S'DT'
p1950
sg1249
(lp1951
g1934
ag1935
aS'A1'
p1952
asg1252
g1253
sg1254
(lp1953
g1883
ag1926
aS'maintain'
p1954
asg1257
I00
sg1258
(dp1955
I0
S'DT'
p1956
sI1
S'NP'
p1957
sI2
S'NP'
p1958
sI3
g1939
sI4
g1924
sI5
g1909
sI6
g1887
sI7
g1874
sI8
S'S'
ssg1262
g1951
sg1263
I7
sg1264
S'the'
p1959
sg1266
S'the'
p1960
sg1268
I286
sg1269
g1270
sg1271
I4
sg1272
(lp1961
g1891
ag1943
aS'pr10'
p1962
asg1275
g1276
sg1277
(lp1963
g1945
ag1946
aS'rl23'
p1964
asg1280
I286
sg1281
S'w56'
p1965
sg1283
(lp1966
I00
aI00
aI00
asg1285
I288
sa(dp1967
g1247
S'JJ'
p1968
sg1249
(lp1969
g1934
ag1935
ag1952
asg1252
g1253
sg1254
(lp1970
g1883
ag1926
ag1954
asg1257
I00
sg1258
(dp1971
I0
S'JJ'
p1972
sI1
g1957
sI2
g1958
sI3
g1939
sI4
g1924
sI5
g1909
sI6
g1887
sI7
g1874
sI8
S'S'
ssg1262
g1969
sg1263
I8
sg1264
S'last'
p1973
sg1266
S'last'
p1974
sg1268
I290
sg1269
g1270
sg1271
I4
sg1272
(lp1975
g1891
ag1943
ag1962
asg1275
g1276
sg1277
(lp1976
g1945
ag1946
ag1964
asg1280
I290
sg1281
S'w57'
p1977
sg1283
(lp1978
I00
aI00
aI00
asg1285
I293
sa(dp1979
g1247
S'NN'
p1980
sg1249
(lp1981
g1934
ag1935
ag1952
asg1252
g1253
sg1254
(lp1982
g1883
ag1926
ag1954
asg1257
I01
sg1258
(dp1983
I0
S'NN'
p1984
sI1
g1957
sI2
g1958
sI3
g1939
sI4
g1924
sI5
g1909
sI6
g1887
sI7
g1874
sI8
S'S'
ssg1262
g1981
sg1263
I9
sg1264
S'conversation'
p1985
sg1266
S'conversation'
p1986
sg1268
I295
sg1269
g1270
sg1271
I4
sg1272
(lp1987
g1891
ag1943
ag1962
asg1275
g1276
sg1277
(lp1988
g1945
ag1946
ag1964
asg1280
I295
sg1281
S'w58'
p1989
sg1283
(lp1990
I00
aI00
aI01
asg1285
I306
sa(dp1991
g1247
S'IN'
p1992
sg1249
(lp1993
g1934
ag1935
ag1952
aS'A0'
p1994
asg1252
g1253
sg1254
(lp1995
g1883
ag1926
ag1954
ag1986
asg1257
I00
sg1258
(dp1996
I0
S'IN'
p1997
sI1
S'PP'
p1998
sI2
g1958
sI3
g1939
sI4
g1924
sI5
g1909
sI6
g1887
sI7
g1874
sI8
S'S'
ssg1262
g1993
sg1263
I10
sg1264
S'between'
p1999
sg1266
S'between'
p2000
sg1268
I308
sg1269
g1270
sg1271
I4
sg1272
(lp2001
g1891
ag1943
ag1962
aS'pr11'
p2002
asg1275
g1276
sg1277
(lp2003
g1945
ag1946
ag1964
aS'rl26'
p2004
asg1280
I308
sg1281
S'w59'
p2005
sg1283
(lp2006
I00
aI00
aI00
aI01
asg1285
I314
sa(dp2007
g1247
S'NNS'
p2008
sg1249
(lp2009
g1934
ag1935
ag1952
ag1994
asg1252
g1253
sg1254
(lp2010
g1883
ag1926
ag1954
ag1986
asg1257
I00
sg1258
(dp2011
I0
S'NNS'
p2012
sI1
S'NP'
p2013
sI2
S'NP'
p2014
sI3
g1998
sI4
g1958
sI5
g1939
sI6
g1924
sI7
g1909
sI8
g1887
sI9
g1874
sI10
S'S'
ssg1262
g2009
sg1263
I11
sg1264
S'controller'
p2015
sg1266
S'controllers'
p2016
sg1268
I316
sg1269
g1270
sg1271
I4
sg1272
(lp2017
g1891
ag1943
ag1962
ag2002
asg1275
g1276
sg1277
(lp2018
g1945
ag1946
ag1964
ag2004
asg1280
I316
sg1281
S'w60'
p2019
sg1283
(lp2020
I00
aI00
aI00
aI00
asg1285
I326
sa(dp2021
g1247
S'CC'
p2022
sg1249
(lp2023
g1934
ag1935
ag1952
ag1994
asg1252
g1253
sg1254
(lp2024
g1883
ag1926
ag1954
ag1986
asg1257
I00
sg1258
(dp2025
I0
S'CC'
p2026
sI1
g2014
sI2
g1998
sI3
g1958
sI4
g1939
sI5
g1924
sI6
g1909
sI7
g1887
sI8
g1874
sI9
S'S'
ssg1262
g2023
sg1263
I12
sg1264
S'and'
p2027
sg1266
S'and'
p2028
sg1268
I328
sg1269
g1270
sg1271
I4
sg1272
(lp2029
g1891
ag1943
ag1962
ag2002
asg1275
g1276
sg1277
(lp2030
g1945
ag1946
ag1964
ag2004
asg1280
I328
sg1281
S'w61'
p2031
sg1283
(lp2032
I00
aI00
aI00
aI00
asg1285
I330
sa(dp2033
g1247
S'NNP'
p2034
sg1249
(lp2035
g1934
ag1935
ag1952
ag1994
asg1289
(lp2036
S'w62'
p2037
asg1252
S'ORG'
p2038
sg1254
(lp2039
g1883
ag1926
ag1954
ag1986
asg1268
S'e6'
p2040
sg1258
(dp2041
I0
S'NNP'
p2042
sI1
S'NP'
p2043
sI2
S'NP'
p2044
sI3
g2014
sI4
g1998
sI5
g1958
sI6
g1939
sI7
g1924
sI8
g1909
sI9
g1887
sI10
g1874
sI11
S'S'
ssg1262
g2035
sg1257
I00
sg1263
I13
sg1264
S'TWA'
p2045
sg1266
S'TWA'
p2046
sg1269
g1270
sg1271
I4
sg1272
(lp2047
g1891
ag1943
ag1962
ag2002
asg1275
g2046
sg1277
(lp2048
g1945
ag1946
ag1964
ag2004
asg1280
I332
sg1281
S'w62'
p2049
sg1283
(lp2050
I00
aI00
aI00
aI00
asg1285
I334
sa(dp2051
g1247
S'NN'
p2052
sg1249
(lp2053
g1934
ag1935
ag1952
ag1994
asg1252
g1253
sg1254
(lp2054
g1883
ag1926
ag1954
ag1986
asg1257
I00
sg1258
(dp2055
I0
S'NN'
p2056
sI1
g2043
sI2
g2044
sI3
g2014
sI4
g1998
sI5
g1958
sI6
g1939
sI7
g1924
sI8
g1909
sI9
g1887
sI10
g1874
sI11
S'S'
ssg1262
g2053
sg1263
I14
sg1264
S'pilot'
p2057
sg1266
S'pilot'
p2058
sg1268
I336
sg1269
g1270
sg1271
I4
sg1272
(lp2059
g1891
ag1943
ag1962
ag2002
asg1275
g1276
sg1277
(lp2060
g1945
ag1946
ag1964
ag2004
asg1280
I336
sg1281
S'w63'
p2061
sg1283
(lp2062
I00
aI00
aI00
aI00
asg1285
I340
sa(dp2063
g1247
S'NNP'
p2064
sg1249
(lp2065
g1934
ag1935
ag1952
ag1994
asg1289
(lp2066
S'w64'
p2067
aS'w65'
p2068
asg1252
S'PER'
p2069
sg1254
(lp2070
g1883
ag1926
ag1954
ag1986
asg1268
S'e7'
p2071
sg1258
(dp2072
I0
S'NNP'
p2073
sI1
g2043
sI2
g2044
sI3
g2014
sI4
g1998
sI5
g1958
sI6
g1939
sI7
g1924
sI8
g1909
sI9
g1887
sI10
g1874
sI11
S'S'
ssg1262
g2065
sg1257
I00
sg1263
I15
sg1264
S'Steven'
p2074
sg1266
S'Steven'
p2075
sg1269
g1270
sg1271
I4
sg1272
(lp2076
g1891
ag1943
ag1962
ag2002
asg1275
S'StevenSnyder'
p2077
sg1277
(lp2078
g1945
ag1946
ag1964
ag2004
asg1280
I342
sg1281
S'w64'
p2079
sg1283
(lp2080
I00
aI00
aI00
aI00
asg1285
I347
sa(dp2081
g1247
S'NNP'
p2082
sg1249
(lp2083
g1934
ag1935
ag1952
ag1994
asg1289
g2066
sg1252
g2069
sg1254
(lp2084
g1883
ag1926
ag1954
ag1986
asg1268
g2071
sg1258
(dp2085
I0
S'NNP'
p2086
sI1
g2043
sI2
g2044
sI3
g2014
sI4
g1998
sI5
g1958
sI6
g1939
sI7
g1924
sI8
g1909
sI9
g1887
sI10
g1874
sI11
S'S'
ssg1262
g2083
sg1257
I00
sg1263
I16
sg1264
S'Snyder'
p2087
sg1266
S'Snyder'
p2088
sg1269
g1270
sg1271
I4
sg1272
(lp2089
g1891
ag1943
ag1962
ag2002
asg1275
S'StevenSnyder'
p2090
sg1277
(lp2091
g1945
ag1946
ag1964
ag2004
asg1280
I349
sg1281
S'w65'
p2092
sg1283
(lp2093
I00
aI00
aI00
aI00
asg1285
I354
sa(dp2094
g1247
S'NNP'
p2095
sg1249
(lp2096
g1934
ag1935
ag1952
ag1994
asg1252
g1253
sg1254
(lp2097
g1883
ag1926
ag1954
ag1986
asg1257
I00
sg1258
(dp2098
I0
S'NNP'
p2099
sI1
g2043
sI2
g2044
sI3
g2014
sI4
g1998
sI5
g1958
sI6
g1939
sI7
g1924
sI8
g1909
sI9
g1887
sI10
g1874
sI11
S'S'
ssg1262
g2096
sg1263
I17
sg1264
S'TWA'
p2100
sg1266
S'TWA'
p2101
sg1268
I356
sg1269
g1270
sg1271
I4
sg1272
(lp2102
g1891
ag1943
ag1962
ag2002
asg1275
g1276
sg1277
(lp2103
g1945
ag1946
ag1964
ag2004
asg1280
I356
sg1281
S'w66'
p2104
sg1283
(lp2105
I00
aI00
aI00
aI00
asg1285
I358
sa(dp2106
g1247
S'CD'
p2107
sg1249
(lp2108
g1934
ag1935
ag1952
aS'A0'
p2109
asg1252
g1253
sg1254
(lp2110
g1883
ag1926
ag1954
ag1954
asg1257
I00
sg1258
(dp2111
I0
S'CD'
p2112
sI1
g2043
sI2
g2044
sI3
g2014
sI4
g1998
sI5
g1958
sI6
g1939
sI7
g1924
sI8
g1909
sI9
g1887
sI10
g1874
sI11
S'S'
ssg1262
g2108
sg1263
I18
sg1264
S'eight'
p2113
sg1266
S'eight'
p2114
sg1268
I360
sg1269
g1270
sg1271
I4
sg1272
(lp2115
g1891
ag1943
ag1962
ag1962
asg1275
g1276
sg1277
(lp2116
g1945
ag1946
ag1964
aS'rl24'
p2117
asg1280
I360
sg1281
S'w67'
p2118
sg1283
(lp2119
I00
aI00
aI00
aI00
asg1285
I364
sa(dp2120
g1247
S'CD'
p2121
sg1249
(lp2122
g1934
ag1935
ag1952
ag2109
asg1252
g1253
sg1254
(lp2123
g1883
ag1926
ag1954
ag1954
asg1257
I00
sg1258
(dp2124
I0
S'CD'
p2125
sI1
g2043
sI2
g2044
sI3
g2014
sI4
g1998
sI5
g1958
sI6
g1939
sI7
g1924
sI8
g1909
sI9
g1887
sI10
g1874
sI11
S'S'
ssg1262
g2122
sg1263
I19
sg1264
S'hundred'
p2126
sg1266
S'hundred'
p2127
sg1268
I366
sg1269
g1270
sg1271
I4
sg1272
(lp2128
g1891
ag1943
ag1962
ag1962
asg1275
g1276
sg1277
(lp2129
g1945
ag1946
ag1964
ag2117
asg1280
I366
sg1281
S'w68'
p2130
sg1283
(lp2131
I00
aI00
aI00
aI00
asg1285
I372
sa(dp2132
g1247
S'NN'
p2133
sg1249
(lp2134
g1934
ag1935
ag1952
ag2109
asg1252
g1253
sg1254
(lp2135
g1883
ag1926
ag1954
ag1954
asg1257
I00
sg1258
(dp2136
I0
S'NN'
p2137
sI1
g2043
sI2
g2044
sI3
g2014
sI4
g1998
sI5
g1958
sI6
g1939
sI7
g1924
sI8
g1909
sI9
g1887
sI10
g1874
sI11
S'S'
ssg1262
g2134
sg1263
I20
sg1264
S'climb'
p2138
sg1266
S'climb'
p2139
sg1268
I374
sg1269
g1270
sg1271
I4
sg1272
(lp2140
g1891
ag1943
ag1962
ag1962
asg1275
g1276
sg1277
(lp2141
g1945
ag1946
ag1964
ag2117
asg1280
I374
sg1281
S'w69'
p2142
sg1283
(lp2143
I00
aI00
aI00
aI01
asg1285
I378
sa(dp2144
g1247
S'VBP'
p2145
sg1249
(lp2146
g1934
ag1935
ag1952
asg1252
g1253
sg1254
(lp2147
g1883
ag1926
ag1954
asg1257
I01
sg1258
(dp2148
I0
S'NN'
p2149
sI1
g2043
sI2
g2044
sI3
g2014
sI4
g1998
sI5
g1958
sI6
g1939
sI7
g1924
sI8
g1909
sI9
g1887
sI10
g1874
sI11
S'S'
ssg1262
g2146
sg1263
I21
sg1264
S'maintain'
p2150
sg1266
g1954
sg1268
I380
sg1269
g1388
sg1271
I4
sg1272
(lp2151
g1891
ag1943
ag1962
asg1275
g1276
sg1277
(lp2152
g1945
ag1946
ag1964
asg1280
I380
sg1281
S'w70'
p2153
sg1283
(lp2154
I00
aI00
aI00
asg1285
I387
sa(dp2155
g1247
S'CD'
p2156
sg1249
(lp2157
g1934
ag1935
ag1952
aS'A1'
p2158
asg1252
g1253
sg1254
(lp2159
g1883
ag1926
ag1954
ag1954
asg1257
I00
sg1258
(dp2160
I0
S'CD'
p2161
sI1
S'NP'
p2162
sI2
g2044
sI3
g2014
sI4
g1998
sI5
g1958
sI6
g1939
sI7
g1924
sI8
g1909
sI9
g1887
sI10
g1874
sI11
S'S'
ssg1262
g2157
sg1263
I22
sg1264
S'one'
p2163
sg1266
S'one'
p2164
sg1268
I389
sg1269
g1270
sg1271
I4
sg1272
(lp2165
g1891
ag1943
ag1962
ag1962
asg1275
g1276
sg1277
(lp2166
g1945
ag1946
ag1964
aS'rl25'
p2167
asg1280
I389
sg1281
S'w71'
p2168
sg1283
(lp2169
I00
aI00
aI00
aI01
asg1285
I391
sa(dp2170
g1247
S'CD'
p2171
sg1249
(lp2172
g1934
ag1935
ag1952
ag2158
asg1252
g1253
sg1254
(lp2173
g1883
ag1926
ag1954
ag1954
asg1257
I00
sg1258
(dp2174
I0
S'CD'
p2175
sI1
g2162
sI2
g2044
sI3
g2014
sI4
g1998
sI5
g1958
sI6
g1939
sI7
g1924
sI8
g1909
sI9
g1887
sI10
g1874
sI11
S'S'
ssg1262
g2172
sg1263
I23
sg1264
S'five'
p2176
sg1266
S'five'
p2177
sg1268
I393
sg1269
g1270
sg1271
I4
sg1272
(lp2178
g1891
ag1943
ag1962
ag1962
asg1275
g1276
sg1277
(lp2179
g1945
ag1946
ag1964
ag2167
asg1280
I393
sg1281
S'w72'
p2180
sg1283
(lp2181
I00
aI00
aI00
aI00
asg1285
I396
sa(dp2182
g1247
S'CD'
p2183
sg1249
(lp2184
g1934
ag1935
ag1952
ag2158
asg1252
g1253
sg1254
(lp2185
g1883
ag1926
ag1954
ag1954
asg1257
I00
sg1258
(dp2186
I0
S'CD'
p2187
sI1
g2162
sI2
g2044
sI3
g2014
sI4
g1998
sI5
g1958
sI6
g1939
sI7
g1924
sI8
g1909
sI9
g1887
sI10
g1874
sI11
S'S'
ssg1262
g2184
sg1263
I24
sg1264
S'thousand'
p2188
sg1266
S'thousand'
p2189
sg1268
I398
sg1269
g1270
sg1271
I4
sg1272
(lp2190
g1891
ag1943
ag1962
ag1962
asg1275
g1276
sg1277
(lp2191
g1945
ag1946
ag1964
ag2167
asg1280
I398
sg1281
S'w73'
p2192
sg1283
(lp2193
I00
aI00
aI00
aI00
asg1285
I405
sa(dp2194
g1247
S'.'
sg1252
g1253
sg1257
I00
sg1258
(dp2195
I0
S'.'
sI1
S'S'
ssg1263
I25
sg1264
S'.'
sg1266
S'.'
sg1268
I406
sg1269
g1270
sg1271
I4
sg1275
g1276
sg1280
I406
sg1281
S'w74'
p2196
sg1285
I406
sasI5
(lp2197
(dp2198
g1247
S'NNP'
p2199
sg1249
(lp2200
S'A1'
p2201
asg1289
(lp2202
S'w75'
p2203
asg1252
S'ORG'
p2204
sg1254
(lp2205
S'climb'
p2206
asg1268
S'e8'
p2207
sg1258
(dp2208
I0
S'NNP'
p2209
sI1
S'NP'
p2210
sI2
S'NP'
p2211
sI3
S'NP'
p2212
sI4
S'NP'
p2213
sI5
S'NP'
p2214
ssg1262
g2200
sg1257
I00
sg1263
I0
sg1264
S'TWA'
p2215
sg1266
S'TWA'
p2216
sg1269
g1270
sg1271
I5
sg1272
(lp2217
S'pr12'
p2218
asg1275
g2216
sg1277
(lp2219
S'rl27'
p2220
asg1280
I409
sg1281
S'w75'
p2221
sg1283
(lp2222
I01
asg1285
I411
sa(dp2223
g1247
S'POS'
p2224
sg1249
(lp2225
g2201
asg1252
g1253
sg1254
(lp2226
g2206
asg1257
I00
sg1258
(dp2227
I0
S'POS'
p2228
sI1
g2210
sI2
g2211
sI3
g2212
sI4
g2213
sI5
g2214
ssg1262
g2225
sg1263
I1
sg1264
S"'s"
p2229
sg1266
S"'s"
p2230
sg1268
I412
sg1269
g1270
sg1271
I5
sg1272
(lp2231
g2218
asg1275
g1276
sg1277
(lp2232
g2220
asg1280
I412
sg1281
S'w76'
p2233
sg1283
(lp2234
I00
asg1285
I413
sa(dp2235
g1247
S'CD'
p2236
sg1252
g1253
sg1257
I00
sg1258
(dp2237
I0
S'CD'
p2238
sI1
S'QP'
p2239
sI2
g2211
sI3
g2212
sI4
g2213
sI5
g2214
ssg1263
I2
sg1264
S'eight'
p2240
sg1266
S'eight'
p2241
sg1268
I415
sg1269
g1270
sg1271
I5
sg1275
g1276
sg1280
I415
sg1281
S'w77'
p2242
sg1285
I419
sa(dp2243
g1247
S'CD'
p2244
sg1252
g1253
sg1257
I00
sg1258
(dp2245
I0
S'CD'
p2246
sI1
g2239
sI2
g2211
sI3
g2212
sI4
g2213
sI5
g2214
ssg1263
I3
sg1264
S'hundred'
p2247
sg1266
S'hundred'
p2248
sg1268
I421
sg1269
g1270
sg1271
I5
sg1275
g1276
sg1280
I421
sg1281
S'w78'
p2249
sg1285
I427
sa(dp2250
g1247
S'JJ'
p2251
sg1249
(lp2252
S'AM-MNR'
p2253
asg1252
g1253
sg1254
(lp2254
g2206
asg1257
I00
sg1258
(dp2255
I0
S'JJ'
p2256
sI1
g2211
sI2
g2212
sI3
g2213
sI4
g2214
ssg1262
g2252
sg1263
I4
sg1264
S'heavy'
p2257
sg1266
S'heavy'
p2258
sg1268
I429
sg1269
g1270
sg1271
I5
sg1272
(lp2259
g2218
asg1275
g1276
sg1277
(lp2260
S'rl28'
p2261
asg1280
I429
sg1281
S'w79'
p2262
sg1283
(lp2263
I01
asg1285
I433
sa(dp2264
g1247
S'NN'
p2265
sg1252
g1253
sg1257
I01
sg1258
(dp2266
I0
S'NN'
p2267
sI1
g2211
sI2
g2212
sI3
g2213
sI4
g2214
ssg1263
I5
sg1264
S'climb'
p2268
sg1266
g2206
sg1268
I435
sg1269
g1270
sg1271
I5
sg1275
g1276
sg1280
I435
sg1281
S'w80'
p2269
sg1285
I439
sa(dp2270
g1247
S'CC'
p2271
sg1252
g1253
sg1257
I00
sg1258
(dp2272
I0
S'CC'
p2273
sI1
g2212
sI2
g2213
sI3
g2214
ssg1263
I6
sg1264
S'and'
p2274
sg1266
S'and'
p2275
sg1268
I441
sg1269
g1270
sg1271
I5
sg1275
g1276
sg1280
I441
sg1281
S'w81'
p2276
sg1285
I443
sa(dp2277
g1247
S'VB'
p2278
sg1252
g1253
sg1257
I01
sg1258
(dp2279
I0
S'NN'
p2280
sI1
S'NP'
p2281
sI2
g2212
sI3
g2213
sI4
g2214
ssg1263
I7
sg1264
S'maintain'
p2282
sg1266
S'maintain'
p2283
sg1268
I445
sg1269
g1270
sg1271
I5
sg1275
g1276
sg1280
I445
sg1281
S'w82'
p2284
sg1285
I452
sa(dp2285
g1247
S'CD'
p2286
sg1249
(lp2287
S'A1'
p2288
asg1252
g1253
sg1254
(lp2289
g2283
asg1257
I00
sg1258
(dp2290
I0
S'IN'
p2291
sI1
S'PP'
p2292
sI2
g2213
sI3
g2214
ssg1262
g2287
sg1263
I8
sg1264
S'one'
p2293
sg1266
S'one'
p2294
sg1268
I454
sg1269
g1270
sg1271
I5
sg1272
(lp2295
S'pr13'
p2296
asg1275
g1276
sg1277
(lp2297
S'rl29'
p2298
asg1280
I454
sg1281
S'w83'
p2299
sg1283
(lp2300
I01
asg1285
I456
sa(dp2301
g1247
S'CD'
p2302
sg1252
g1253
sg1257
I00
sg1258
(dp2303
I0
S'CD'
p2304
sI1
S'NP'
p2305
sI2
g2292
sI3
g2213
sI4
g2214
ssg1263
I9
sg1264
S'five'
p2306
sg1266
S'five'
p2307
sg1268
I458
sg1269
g1270
sg1271
I5
sg1275
g1276
sg1280
I458
sg1281
S'w84'
p2308
sg1285
I461
sa(dp2309
g1247
S'CD'
p2310
sg1252
g1253
sg1257
I00
sg1258
(dp2311
I0
S'CD'
p2312
sI1
g2305
sI2
g2292
sI3
g2213
sI4
g2214
ssg1263
I10
sg1264
S'thousand'
p2313
sg1266
S'thousand'
p2314
sg1268
I463
sg1269
g1270
sg1271
I5
sg1275
g1276
sg1280
I463
sg1281
S'w85'
p2315
sg1285
I470
sa(dp2316
g1247
S'NN'
p2317
sg1252
g1253
sg1257
I00
sg1258
(dp2318
I0
S'VBG'
p2319
sI1
g2305
sI2
g2292
sI3
g2213
sI4
g2214
ssg1263
I11
sg1264
S'leavin'
p2320
sg1266
S'leavin'
p2321
sg1268
I472
sg1269
g1270
sg1271
I5
sg1275
g1276
sg1280
I472
sg1281
S'w86'
p2322
sg1285
I477
sa(dp2323
g1247
S':'
sg1252
g1253
sg1257
I00
sg1258
(dp2324
I0
S':'
sI1
g2214
ssg1263
I12
sg1264
S'-'
sg1266
S'-'
sg1268
I478
sg1269
g1270
sg1271
I5
sg1275
g1276
sg1280
I478
sg1281
S'w87'
p2325
sg1285
I478
sa(dp2326
g1247
S'CD'
p2327
sg1252
g1253
sg1257
I00
sg1258
(dp2328
I0
S'CD'
p2329
sI1
S'NP'
p2330
sI2
g2214
ssg1263
I13
sg1264
S'three'
p2331
sg1266
S'three'
p2332
sg1268
I480
sg1269
g1270
sg1271
I5
sg1275
g1276
sg1280
I480
sg1281
S'w88'
p2333
sg1285
I484
sa(dp2334
g1247
S'CD'
p2335
sg1252
g1253
sg1257
I00
sg1258
(dp2336
I0
S'CD'
p2337
sI1
g2330
sI2
g2214
ssg1263
I14
sg1264
S'thousand'
p2338
sg1266
S'thousand'
p2339
sg1268
I486
sg1269
g1270
sg1271
I5
sg1275
g1276
sg1280
I486
sg1281
S'w89'
p2340
sg1285
I493
sa(dp2341
g1247
S'.'
sg1252
g1253
sg1257
I00
sg1258
(dp2342
I0
S'.'
sI1
g2214
ssg1263
I15
sg1264
S'.'
sg1266
S'.'
sg1268
I494
sg1269
g1270
sg1271
I5
sg1275
g1276
sg1280
I494
sg1281
S'w90'
p2343
sg1285
I494
sasI6
(lp2344
(dp2345
g1247
S'CC'
p2346
sg1252
g1253
sg1257
I00
sg1258
(dp2347
I0
S'CC'
p2348
sI1
S'S'
ssg1263
I0
sg1264
S'but'
p2349
sg1266
S'But'
p2350
sg1268
I497
sg1269
g1270
sg1271
I6
sg1275
g1276
sg1280
I497
sg1281
S'w91'
p2351
sg1285
I499
sa(dp2352
g1247
S'DT'
p2353
sg1252
g1253
sg1257
I00
sg1258
(dp2354
I0
S'DT'
p2355
sI1
S'NP'
p2356
sI2
S'NP'
p2357
sI3
S'ADVP'
p2358
sI4
S'S'
ssg1263
I1
sg1264
S'a'
sg1266
S'a'
sg1268
I501
sg1269
g1270
sg1271
I6
sg1275
g1276
sg1280
I501
sg1281
S'w92'
p2359
sg1285
I501
sa(dp2360
g1247
S'NN'
p2361
sg1252
g1253
sg1257
I00
sg1258
(dp2362
I0
S'NN'
p2363
sI1
g2356
sI2
g2357
sI3
g2358
sI4
S'S'
ssg1263
I2
sg1264
S'minute'
p2364
sg1266
S'minute'
p2365
sg1268
I503
sg1269
g1270
sg1271
I6
sg1275
g1276
sg1280
I503
sg1281
S'w93'
p2366
sg1285
I508
sa(dp2367
g1247
S'CC'
p2368
sg1252
g1253
sg1257
I00
sg1258
(dp2369
I0
S'CC'
p2370
sI1
g2357
sI2
g2358
sI3
S'S'
ssg1263
I3
sg1264
S'and'
p2371
sg1266
S'and'
p2372
sg1268
I510
sg1269
g1270
sg1271
I6
sg1275
g1276
sg1280
I510
sg1281
S'w94'
p2373
sg1285
I512
sa(dp2374
g1247
S'DT'
p2375
sg1249
(lp2376
S'A0'
p2377
asg1252
g1253
sg1254
(lp2378
S'pilot'
p2379
asg1257
I00
sg1258
(dp2380
I0
S'DT'
p2381
sI1
S'NP'
p2382
sI2
g2357
sI3
g2358
sI4
S'S'
ssg1262
g2376
sg1263
I4
sg1264
S'a'
sg1266
S'a'
sg1268
I514
sg1269
g1270
sg1271
I6
sg1272
(lp2383
S'pr14'
p2384
asg1275
g1276
sg1277
(lp2385
S'rl30'
p2386
asg1280
I514
sg1281
S'w95'
p2387
sg1283
(lp2388
I00
asg1285
I514
sa(dp2389
g1247
S'NN'
p2390
sg1249
(lp2391
g2377
asg1252
g1253
sg1254
(lp2392
g2379
asg1257
I00
sg1258
(dp2393
I0
S'NN'
p2394
sI1
g2382
sI2
g2357
sI3
g2358
sI4
S'S'
ssg1262
g2391
sg1263
I5
sg1264
S'half'
p2395
sg1266
S'half'
p2396
sg1268
I516
sg1269
g1270
sg1271
I6
sg1272
(lp2397
g2384
asg1275
g1276
sg1277
(lp2398
g2386
asg1280
I516
sg1281
S'w96'
p2399
sg1283
(lp2400
I00
asg1285
I519
sa(dp2401
g1247
S'RB'
p2402
sg1249
(lp2403
g2377
asg1252
g1253
sg1254
(lp2404
g2379
asg1257
I00
sg1258
(dp2405
I0
S'RB'
p2406
sI1
g2358
sI2
S'S'
ssg1262
g2403
sg1263
I6
sg1264
S'later'
p2407
sg1266
S'later'
p2408
sg1268
I521
sg1269
g1270
sg1271
I6
sg1272
(lp2409
g2384
asg1275
g1276
sg1277
(lp2410
g2386
asg1280
I521
sg1281
S'w97'
p2411
sg1283
(lp2412
I00
asg1285
I525
sa(dp2413
g1247
S','
sg1249
(lp2414
g2377
asg1252
g1253
sg1254
(lp2415
g2379
asg1257
I00
sg1258
(dp2416
I0
S','
sI1
S'S'
ssg1262
g2414
sg1263
I7
sg1264
S','
sg1266
S','
sg1268
I526
sg1269
g1270
sg1271
I6
sg1272
(lp2417
g2384
asg1275
g1276
sg1277
(lp2418
g2386
asg1280
I526
sg1281
S'w98'
p2419
sg1283
(lp2420
I00
asg1285
I526
sa(dp2421
g1247
S'DT'
p2422
sg1249
(lp2423
g2377
asg1252
g1253
sg1254
(lp2424
g2379
asg1257
I00
sg1258
(dp2425
I0
S'DT'
p2426
sI1
S'NP'
p2427
sI2
S'NP'
p2428
sI3
S'S'
ssg1262
g2423
sg1263
I8
sg1264
S'a'
sg1266
S'a'
sg1268
I528
sg1269
g1270
sg1271
I6
sg1272
(lp2429
g2384
asg1275
g1276
sg1277
(lp2430
g2386
asg1280
I528
sg1281
S'w99'
p2431
sg1283
(lp2432
I00
asg1285
I528
sa(dp2433
g1247
S'NN'
p2434
sg1249
(lp2435
g2377
asg1252
g1253
sg1254
(lp2436
g2379
asg1257
I01
sg1258
(dp2437
I0
S'NN'
p2438
sI1
g2427
sI2
g2428
sI3
S'S'
ssg1262
g2435
sg1263
I9
sg1264
S'pilot'
p2439
sg1266
g2379
sg1268
I530
sg1269
g1270
sg1271
I6
sg1272
(lp2440
g2384
asg1275
g1276
sg1277
(lp2441
g2386
asg1280
I530
sg1281
S'w100'
p2442
sg1283
(lp2443
I01
asg1285
I534
sa(dp2444
g1247
S'IN'
p2445
sg1249
(lp2446
g2377
aS'A1'
p2447
asg1252
g1253
sg1254
(lp2448
g2379
ag2379
asg1257
I00
sg1258
(dp2449
I0
S'IN'
p2450
sI1
S'PP'
p2451
sI2
g2428
sI3
S'S'
ssg1262
g2446
sg1263
I10
sg1264
S'from'
p2452
sg1266
S'from'
p2453
sg1268
I536
sg1269
g1270
sg1271
I6
sg1272
(lp2454
g2384
ag2384
asg1275
g1276
sg1277
(lp2455
g2386
aS'rl31'
p2456
asg1280
I536
sg1281
S'w101'
p2457
sg1283
(lp2458
I00
aI01
asg1285
I539
sa(dp2459
g1247
S'DT'
p2460
sg1249
(lp2461
g2377
ag2447
asg1252
g1253
sg1254
(lp2462
g2379
ag2379
asg1257
I00
sg1258
(dp2463
I0
S'DT'
p2464
sI1
S'NP'
p2465
sI2
g2451
sI3
g2428
sI4
S'S'
ssg1262
g2461
sg1263
I11
sg1264
S'a'
sg1266
S'a'
sg1268
I541
sg1269
g1270
sg1271
I6
sg1272
(lp2466
g2384
ag2384
asg1275
g1276
sg1277
(lp2467
g2386
ag2456
asg1280
I541
sg1281
S'w102'
p2468
sg1283
(lp2469
I00
aI00
asg1285
I541
sa(dp2470
g1247
S'JJ'
p2471
sg1249
(lp2472
g2377
ag2447
aS'AM-MNR'
p2473
asg1252
g1253
sg1254
(lp2474
g2379
ag2379
aS'calls'
p2475
asg1257
I00
sg1258
(dp2476
I0
S'JJ'
p2477
sI1
g2465
sI2
g2451
sI3
g2428
sI4
S'S'
ssg1262
g2472
sg1263
I12
sg1264
S'nearby'
p2478
sg1266
S'nearby'
p2479
sg1268
I543
sg1269
g1270
sg1271
I6
sg1272
(lp2480
g2384
ag2384
aS'pr15'
p2481
asg1275
g1276
sg1277
(lp2482
g2386
ag2456
aS'rl32'
p2483
asg1280
I543
sg1281
S'w103'
p2484
sg1283
(lp2485
I00
aI00
aI01
asg1285
I548
sa(dp2486
g1247
S'NN'
p2487
sg1249
(lp2488
g2377
ag2447
aS'A1'
p2489
aS'A1'
p2490
asg1252
g1253
sg1254
(lp2491
g2379
ag2379
ag2475
aS'flight'
p2492
asg1257
I01
sg1258
(dp2493
I0
S'NN'
p2494
sI1
g2465
sI2
g2451
sI3
g2428
sI4
S'S'
ssg1262
g2488
sg1263
I13
sg1264
S'flight'
p2495
sg1266
g2492
sg1268
I550
sg1269
g1270
sg1271
I6
sg1272
(lp2496
g2384
ag2384
ag2481
aS'pr16'
p2497
asg1275
g1276
sg1277
(lp2498
g2386
ag2456
aS'rl33'
p2499
aS'rl35'
p2500
asg1280
I550
sg1281
S'w104'
p2501
sg1283
(lp2502
I00
aI00
aI01
aI01
asg1285
I555
sa(dp2503
g1247
S'NNS'
p2504
sg1249
(lp2505
g2377
ag2447
asg1252
g1253
sg1254
(lp2506
g2379
ag2379
asg1257
I01
sg1258
(dp2507
I0
S'VBZ'
p2508
sI1
S'VP'
p2509
sI2
S'S'
ssg1262
g2505
sg1263
I14
sg1264
S'call'
p2510
sg1266
g2475
sg1268
I557
sg1269
g1270
sg1271
I6
sg1272
(lp2511
g2384
ag2384
asg1275
g1276
sg1277
(lp2512
g2386
ag2456
asg1280
I557
sg1281
S'w105'
p2513
sg1283
(lp2514
I00
aI00
asg1285
I561
sa(dp2515
g1247
S'IN'
p2516
sg1249
(lp2517
g2377
ag2447
aS'AM-LOC'
p2518
asg1252
g1253
sg1254
(lp2519
g2379
ag2379
ag2475
asg1257
I00
sg1258
(dp2520
I0
S'RP'
p2521
sI1
S'PRT'
p2522
sI2
g2509
sI3
S'S'
ssg1262
g2517
sg1263
I15
sg1264
S'in'
p2523
sg1266
S'in'
p2524
sg1268
I563
sg1269
g1270
sg1271
I6
sg1272
(lp2525
g2384
ag2384
ag2481
asg1275
g1276
sg1277
(lp2526
g2386
ag2456
aS'rl34'
p2527
asg1280
I563
sg1281
S'w106'
p2528
sg1283
(lp2529
I00
aI00
aI01
asg1285
I564
sa(dp2530
g1247
S'.'
sg1252
g1253
sg1257
I00
sg1258
(dp2531
I0
S'.'
sI1
S'S'
ssg1263
I16
sg1264
S'.'
sg1266
S'.'
sg1268
I565
sg1269
g1270
sg1271
I6
sg1275
g1276
sg1280
I565
sg1281
S'w107'
p2532
sg1285
I565
sasI7
(lp2533
(dp2534
g1247
S'UH'
p2535
sg1289
(lp2536
S'w108'
p2537
asg1252
S'ORG'
p2538
sg1268
S'e9'
p2539
sg1258
(dp2540
I0
S'UH'
p2541
sI1
S'INTJ'
p2542
sI2
S'S'
ssg1257
I00
sg1263
I0
sg1264
S'ah'
p2543
sg1266
S'Ah'
p2544
sg1269
g1270
sg1271
I7
sg1275
g2544
sg1280
I568
sg1281
S'w108'
p2545
sg1285
I569
sa(dp2546
g1247
S','
sg1252
g1253
sg1257
I00
sg1258
(dp2547
I0
S','
sI1
S'S'
ssg1263
I1
sg1264
S','
sg1266
S','
sg1268
I570
sg1269
g1270
sg1271
I7
sg1275
g1276
sg1280
I570
sg1281
S'w109'
p2548
sg1285
I570
sa(dp2549
g1247
S'PRP'
p2550
sg1249
(lp2551
S'A0'
p2552
asg1252
g1253
sg1254
(lp2553
S'saw'
p2554
asg1257
I00
sg1258
(dp2555
I0
S'PRP'
p2556
sI1
S'NP'
p2557
sI2
S'S'
ssg1262
g2551
sg1263
I2
sg1264
S'we'
p2558
sg1266
S'we'
p2559
sg1268
I572
sg1269
g1270
sg1271
I7
sg1272
(lp2560
S'pr17'
p2561
asg1275
g1276
sg1277
(lp2562
S'rl36'
p2563
asg1280
I572
sg1281
S'w110'
p2564
sg1283
(lp2565
I01
asg1285
I573
sa(dp2566
g1247
S'RB'
p2567
sg1249
(lp2568
S'AM-ADV'
p2569
asg1252
g1253
sg1254
(lp2570
g2554
asg1257
I00
sg1258
(dp2571
I0
S'RB'
p2572
sI1
S'ADVP'
p2573
sI2
S'S'
ssg1262
g2568
sg1263
I3
sg1264
S'just'
p2574
sg1266
S'just'
p2575
sg1268
I575
sg1269
g1270
sg1271
I7
sg1272
(lp2576
g2561
asg1275
g1276
sg1277
(lp2577
S'rl37'
p2578
asg1280
I575
sg1281
S'w111'
p2579
sg1283
(lp2580
I01
asg1285
I578
sa(dp2581
g1247
S'VBD'
p2582
sg1252
g1253
sg1257
I01
sg1258
(dp2583
I0
S'VBD'
p2584
sI1
S'VP'
p2585
sI2
S'S'
ssg1263
I4
sg1264
S'see'
p2586
sg1266
g2554
sg1268
I580
sg1269
g1388
sg1271
I7
sg1275
g1276
sg1280
I580
sg1281
S'w112'
p2587
sg1285
I582
sa(dp2588
g1247
S'DT'
p2589
sg1249
(lp2590
S'A1'
p2591
asg1252
g1253
sg1254
(lp2592
g2554
asg1257
I00
sg1258
(dp2593
I0
S'DT'
p2594
sI1
S'NP'
p2595
sI2
g2585
sI3
S'S'
ssg1262
g2590
sg1263
I5
sg1264
S'a'
sg1266
S'an'
p2596
sg1268
I584
sg1269
g1270
sg1271
I7
sg1272
(lp2597
g2561
asg1275
g1276
sg1277
(lp2598
S'rl38'
p2599
asg1280
I584
sg1281
S'w113'
p2600
sg1283
(lp2601
I00
asg1285
I585
sa(dp2602
g1247
S'NN'
p2603
sg1249
(lp2604
g2591
asg1252
g1253
sg1254
(lp2605
g2554
asg1257
I00
sg1258
(dp2606
I0
S'NN'
p2607
sI1
g2595
sI2
g2585
sI3
S'S'
ssg1262
g2604
sg1263
I6
sg1264
S'explosion'
p2608
sg1266
S'explosion'
p2609
sg1268
I587
sg1269
g1270
sg1271
I7
sg1272
(lp2610
g2561
asg1275
g1276
sg1277
(lp2611
g2599
asg1280
I587
sg1281
S'w114'
p2612
sg1283
(lp2613
I01
asg1285
I595
sa(dp2614
g1247
S'RP'
p2615
sg1249
(lp2616
S'C-A1'
p2617
asg1252
g1253
sg1254
(lp2618
g2554
asg1257
I00
sg1258
(dp2619
I0
S'RP'
p2620
sI1
S'PRT'
p2621
sI2
g2585
sI3
S'S'
ssg1262
g2616
sg1263
I7
sg1264
S'up'
p2622
sg1266
S'up'
p2623
sg1268
I597
sg1269
g1270
sg1271
I7
sg1272
(lp2624
g2561
asg1275
g1276
sg1277
(lp2625
S'rl39'
p2626
asg1280
I597
sg1281
S'w115'
p2627
sg1283
(lp2628
I00
asg1285
I598
sa(dp2629
g1247
S'RB'
p2630
sg1249
(lp2631
g2617
asg1252
g1253
sg1254
(lp2632
g2554
asg1257
I00
sg1258
(dp2633
I0
S'RB'
p2634
sI1
S'ADVP'
p2635
sI2
g2585
sI3
S'S'
ssg1262
g2631
sg1263
I8
sg1264
S'ahead'
p2636
sg1266
S'ahead'
p2637
sg1268
I600
sg1269
g1270
sg1271
I7
sg1272
(lp2638
g2561
asg1275
g1276
sg1277
(lp2639
g2626
asg1280
I600
sg1281
S'w116'
p2640
sg1283
(lp2641
I01
asg1285
I604
sa(dp2642
g1247
S'IN'
p2643
sg1249
(lp2644
g2617
asg1252
g1253
sg1254
(lp2645
g2554
asg1257
I00
sg1258
(dp2646
I0
S'IN'
p2647
sI1
S'PP'
p2648
sI2
g2635
sI3
g2585
sI4
S'S'
ssg1262
g2644
sg1263
I9
sg1264
S'of'
p2649
sg1266
S'of'
p2650
sg1268
I606
sg1269
g1270
sg1271
I7
sg1272
(lp2651
g2561
asg1275
g1276
sg1277
(lp2652
g2626
asg1280
I606
sg1281
S'w117'
p2653
sg1283
(lp2654
I00
asg1285
I607
sa(dp2655
g1247
S'PRP'
p2656
sg1249
(lp2657
g2617
asg1252
g1253
sg1254
(lp2658
g2554
asg1257
I00
sg1258
(dp2659
I0
S'PRP'
p2660
sI1
S'NP'
p2661
sI2
g2648
sI3
g2635
sI4
g2585
sI5
S'S'
ssg1262
g2657
sg1263
I10
sg1264
S'we'
p2662
sg1266
S'us'
p2663
sg1268
I609
sg1269
g1270
sg1271
I7
sg1272
(lp2664
g2561
asg1275
g1276
sg1277
(lp2665
g2626
asg1280
I609
sg1281
S'w118'
p2666
sg1283
(lp2667
I00
asg1285
I610
sa(dp2668
g1247
S'RB'
p2669
sg1249
(lp2670
g2617
asg1252
g1253
sg1254
(lp2671
g2554
asg1257
I00
sg1258
(dp2672
I0
S'RB'
p2673
sI1
S'ADVP'
p2674
sI2
g2585
sI3
S'S'
ssg1262
g2670
sg1263
I11
sg1264
S'here'
p2675
sg1266
S'here'
p2676
sg1268
I612
sg1269
g1270
sg1271
I7
sg1272
(lp2677
g2561
asg1275
g1276
sg1277
(lp2678
g2626
asg1280
I612
sg1281
S'w119'
p2679
sg1283
(lp2680
I00
asg1285
I615
sa(dp2681
g1247
S'IN'
p2682
sg1249
(lp2683
g2617
asg1252
g1253
sg1254
(lp2684
g2554
asg1257
I00
sg1258
(dp2685
I0
S'IN'
p2686
sI1
S'PP'
p2687
sI2
g2585
sI3
S'S'
ssg1262
g2683
sg1263
I12
sg1264
S'about'
p2688
sg1266
S'about'
p2689
sg1268
I617
sg1269
g1270
sg1271
I7
sg1272
(lp2690
g2561
asg1275
g1276
sg1277
(lp2691
g2626
asg1280
I617
sg1281
S'w120'
p2692
sg1283
(lp2693
I00
asg1285
I621
sa(dp2694
g1247
S'CD'
p2695
sg1249
(lp2696
g2617
asg1252
g1253
sg1254
(lp2697
g2554
asg1257
I00
sg1258
(dp2698
I0
S'CD'
p2699
sI1
S'QP'
p2700
sI2
S'NP'
p2701
sI3
S'NP'
p2702
sI4
g2687
sI5
g2585
sI6
S'S'
ssg1262
g2696
sg1263
I13
sg1264
S'sixteen'
p2703
sg1266
S'sixteen'
p2704
sg1268
I623
sg1269
g1270
sg1271
I7
sg1272
(lp2705
g2561
asg1275
g1276
sg1277
(lp2706
g2626
asg1280
I623
sg1281
S'w121'
p2707
sg1283
(lp2708
I00
asg1285
I629
sa(dp2709
g1247
S'CD'
p2710
sg1249
(lp2711
g2617
asg1252
g1253
sg1254
(lp2712
g2554
asg1257
I00
sg1258
(dp2713
I0
S'CD'
p2714
sI1
g2700
sI2
g2701
sI3
g2702
sI4
g2687
sI5
g2585
sI6
S'S'
ssg1262
g2711
sg1263
I14
sg1264
S'thousand'
p2715
sg1266
S'thousand'
p2716
sg1268
I631
sg1269
g1270
sg1271
I7
sg1272
(lp2717
g2561
asg1275
g1276
sg1277
(lp2718
g2626
asg1280
I631
sg1281
S'w122'
p2719
sg1283
(lp2720
I00
asg1285
I638
sa(dp2721
g1247
S'NNS'
p2722
sg1249
(lp2723
g2617
asg1252
g1253
sg1254
(lp2724
g2554
asg1257
I00
sg1258
(dp2725
I0
S'NNS'
p2726
sI1
g2701
sI2
g2702
sI3
g2687
sI4
g2585
sI5
S'S'
ssg1262
g2723
sg1263
I15
sg1264
S'foot'
p2727
sg1266
S'feet'
p2728
sg1268
I640
sg1269
g1270
sg1271
I7
sg1272
(lp2729
g2561
asg1275
g1276
sg1277
(lp2730
g2626
asg1280
I640
sg1281
S'w123'
p2731
sg1283
(lp2732
I00
asg1285
I643
sa(dp2733
g1247
S'CC'
p2734
sg1249
(lp2735
g2617
asg1252
g1253
sg1254
(lp2736
g2554
asg1257
I00
sg1258
(dp2737
I0
S'CC'
p2738
sI1
g2702
sI2
g2687
sI3
g2585
sI4
S'S'
ssg1262
g2735
sg1263
I16
sg1264
S'or'
p2739
sg1266
S'or'
p2740
sg1268
I645
sg1269
g1270
sg1271
I7
sg1272
(lp2741
g2561
asg1275
g1276
sg1277
(lp2742
g2626
asg1280
I645
sg1281
S'w124'
p2743
sg1283
(lp2744
I00
asg1285
I646
sa(dp2745
g1247
S'NN'
p2746
sg1249
(lp2747
g2617
asg1252
g1253
sg1254
(lp2748
g2554
asg1257
I00
sg1258
(dp2749
I0
S'NN'
p2750
sI1
S'NP'
p2751
sI2
S'NP'
p2752
sI3
g2702
sI4
g2687
sI5
g2585
sI6
S'S'
ssg1262
g2747
sg1263
I17
sg1264
S'something'
p2753
sg1266
S'something'
p2754
sg1268
I648
sg1269
g1270
sg1271
I7
sg1272
(lp2755
g2561
asg1275
g1276
sg1277
(lp2756
g2626
asg1280
I648
sg1281
S'w125'
p2757
sg1283
(lp2758
I00
asg1285
I656
sa(dp2759
g1247
S'IN'
p2760
sg1249
(lp2761
g2617
asg1252
g1253
sg1254
(lp2762
g2554
asg1257
I00
sg1258
(dp2763
I0
S'IN'
p2764
sI1
S'PP'
p2765
sI2
g2752
sI3
g2702
sI4
g2687
sI5
g2585
sI6
S'S'
ssg1262
g2761
sg1263
I18
sg1264
S'like'
p2766
sg1266
S'like'
p2767
sg1268
I658
sg1269
g1270
sg1271
I7
sg1272
(lp2768
g2561
asg1275
g1276
sg1277
(lp2769
g2626
asg1280
I658
sg1281
S'w126'
p2770
sg1283
(lp2771
I00
asg1285
I661
sa(dp2772
g1247
S'DT'
p2773
sg1249
(lp2774
g2617
asg1252
g1253
sg1254
(lp2775
g2554
asg1257
I00
sg1258
(dp2776
I0
S'DT'
p2777
sI1
S'NP'
p2778
sI2
g2765
sI3
g2752
sI4
g2702
sI5
g2687
sI6
g2585
sI7
S'S'
ssg1262
g2774
sg1263
I19
sg1264
S'that'
p2779
sg1266
S'that'
p2780
sg1268
I663
sg1269
g1270
sg1271
I7
sg1272
(lp2781
g2561
asg1275
g1276
sg1277
(lp2782
g2626
asg1280
I663
sg1281
S'w127'
p2783
sg1283
(lp2784
I00
asg1285
I666
sa(dp2785
g1247
S'.'
sg1252
g1253
sg1257
I00
sg1258
(dp2786
I0
S'.'
sI1
S'S'
ssg1263
I20
sg1264
S'.'
sg1266
S'.'
sg1268
I667
sg1269
g1270
sg1271
I7
sg1275
g1276
sg1280
I667
sg1281
S'w128'
p2787
sg1285
I667
sasI8
(lp2788
(dp2789
g1247
S'PRP'
p2790
sg1249
(lp2791
S'A1'
p2792
asg1252
g1253
sg1254
(lp2793
S'went'
p2794
asg1257
I00
sg1258
(dp2795
I0
S'PRP'
p2796
sI1
S'NP'
p2797
sI2
S'S'
ssg1262
g2791
sg1263
I0
sg1264
S'it'
p2798
sg1266
S'It'
p2799
sg1268
I669
sg1269
g1270
sg1271
I8
sg1272
(lp2800
S'pr18'
p2801
asg1275
g1276
sg1277
(lp2802
S'rl40'
p2803
asg1280
I669
sg1281
S'w129'
p2804
sg1283
(lp2805
I01
asg1285
I670
sa(dp2806
g1247
S'RB'
p2807
sg1249
(lp2808
S'AM-ADV'
p2809
asg1252
g1253
sg1254
(lp2810
g2794
asg1257
I00
sg1258
(dp2811
I0
S'RB'
p2812
sI1
S'ADVP'
p2813
sI2
S'S'
ssg1262
g2808
sg1263
I1
sg1264
S'just'
p2814
sg1266
S'just'
p2815
sg1268
I672
sg1269
g1270
sg1271
I8
sg1272
(lp2816
g2801
asg1275
g1276
sg1277
(lp2817
S'rl41'
p2818
asg1280
I672
sg1281
S'w130'
p2819
sg1283
(lp2820
I01
asg1285
I675
sa(dp2821
g1247
S'VBD'
p2822
sg1252
g1253
sg1257
I01
sg1258
(dp2823
I0
S'VBD'
p2824
sI1
S'VP'
p2825
sI2
S'S'
ssg1263
I2
sg1264
S'go'
p2826
sg1266
g2794
sg1268
I677
sg1269
g1388
sg1271
I8
sg1275
g1276
sg1280
I677
sg1281
S'w131'
p2827
sg1285
I680
sa(dp2828
g1247
S'RB'
p2829
sg1249
(lp2830
S'AM-DIR'
p2831
asg1252
g1253
sg1254
(lp2832
g2794
asg1257
I00
sg1258
(dp2833
I0
S'RB'
p2834
sI1
S'ADVP'
p2835
sI2
g2825
sI3
S'S'
ssg1262
g2830
sg1263
I3
sg1264
S'down'
p2836
sg1266
S'down'
p2837
sg1268
I682
sg1269
g1270
sg1271
I8
sg1272
(lp2838
g2801
asg1275
g1276
sg1277
(lp2839
S'rl42'
p2840
asg1280
I682
sg1281
S'w132'
p2841
sg1283
(lp2842
I01
asg1285
I685
sa(dp2843
g1247
S'.'
sg1252
g1253
sg1257
I00
sg1258
(dp2844
I0
S'.'
sI1
S'S'
ssg1263
I4
sg1264
S'.'
sg1266
S'.'
sg1268
I686
sg1269
g1270
sg1271
I8
sg1275
g1276
sg1280
I686
sg1281
S'w133'
p2845
sg1285
I686
sasI9
(lp2846
(dp2847
g1247
S'DT'
p2848
sg1249
(lp2849
S'A0'
p2850
aS'A0'
p2851
aS'A0'
p2852
asg1252
g1253
sg1254
(lp2853
S'controller'
p2854
aS'tries'
p2855
aS'raise'
p2856
asg1257
I00
sg1258
(dp2857
I0
S'DT'
p2858
sI1
S'NP'
p2859
sI2
S'NP'
p2860
sI3
S'S'
ssg1262
g2849
sg1263
I0
sg1264
S'the'
p2861
sg1266
S'The'
p2862
sg1268
I689
sg1269
g1270
sg1271
I9
sg1272
(lp2863
S'pr19'
p2864
aS'pr20'
p2865
aS'pr21'
p2866
asg1275
g1276
sg1277
(lp2867
S'rl43'
p2868
aS'rl45'
p2869
aS'rl47'
p2870
asg1280
I689
sg1281
S'w134'
p2871
sg1283
(lp2872
I00
aI00
aI00
asg1285
I691
sa(dp2873
g1247
S'NN'
p2874
sg1249
(lp2875
g2850
ag2851
ag2852
asg1252
g1253
sg1254
(lp2876
g2854
ag2855
ag2856
asg1257
I01
sg1258
(dp2877
I0
S'NN'
p2878
sI1
g2859
sI2
g2860
sI3
S'S'
ssg1262
g2875
sg1263
I1
sg1264
S'controller'
p2879
sg1266
g2854
sg1268
I693
sg1269
g1270
sg1271
I9
sg1272
(lp2880
g2864
ag2865
ag2866
asg1275
g1276
sg1277
(lp2881
g2868
ag2869
ag2870
asg1280
I693
sg1281
S'w135'
p2882
sg1283
(lp2883
I01
aI01
aI01
asg1285
I702
sa(dp2884
g1247
S'IN'
p2885
sg1249
(lp2886
g2850
aS'AM-LOC'
p2887
ag2851
ag2852
asg1252
g1253
sg1254
(lp2888
g2854
ag2854
ag2855
ag2856
asg1257
I00
sg1258
(dp2889
I0
S'IN'
p2890
sI1
S'PP'
p2891
sI2
g2860
sI3
S'S'
ssg1262
g2886
sg1263
I2
sg1264
S'at'
p2892
sg1266
S'at'
p2893
sg1268
I704
sg1269
g1270
sg1271
I9
sg1272
(lp2894
g2864
ag2864
ag2865
ag2866
asg1275
g1276
sg1277
(lp2895
g2868
aS'rl44'
p2896
ag2869
ag2870
asg1280
I704
sg1281
S'w136'
p2897
sg1283
(lp2898
I00
aI01
aI00
aI00
asg1285
I705
sa(dp2899
g1247
S'NNP'
p2900
sg1249
(lp2901
g2850
ag2887
ag2851
ag2852
aS'A2'
p2902
aS'A1'
p2903
asg1289
(lp2904
S'w137'
p2905
asg1252
S'LOC'
p2906
sg1254
(lp2907
g2854
ag2854
ag2855
ag2856
aS'center'
p2908
ag2908
asg1268
S'e10'
p2909
sg1258
(dp2910
I0
S'NNP'
p2911
sI1
S'NP'
p2912
sI2
g2891
sI3
g2860
sI4
S'S'
ssg1262
g2901
sg1257
I00
sg1263
I3
sg1264
S'Boston'
p2913
sg1266
S'Boston'
p2914
sg1269
g1270
sg1271
I9
sg1272
(lp2915
g2864
ag2864
ag2865
ag2866
aS'pr22'
p2916
ag2916
asg1275
g2914
sg1277
(lp2917
g2868
ag2896
ag2869
ag2870
aS'rl50'
p2918
aS'rl51'
p2919
asg1280
I707
sg1281
S'w137'
p2920
sg1283
(lp2921
I00
aI00
aI00
aI00
aI01
aI00
asg1285
I712
sa(dp2922
g1247
S'NN'
p2923
sg1249
(lp2924
g2850
ag2887
ag2851
ag2852
ag2903
asg1252
g1253
sg1254
(lp2925
g2854
ag2854
ag2855
ag2856
ag2908
asg1257
I01
sg1258
(dp2926
I0
S'NN'
p2927
sI1
g2912
sI2
g2891
sI3
g2860
sI4
S'S'
ssg1262
g2924
sg1263
I4
sg1264
S'center'
p2928
sg1266
g2908
sg1268
I714
sg1269
g1270
sg1271
I9
sg1272
(lp2929
g2864
ag2864
ag2865
ag2866
ag2916
asg1275
g1276
sg1277
(lp2930
g2868
ag2896
ag2869
ag2870
ag2919
asg1280
I714
sg1281
S'w138'
p2931
sg1283
(lp2932
I00
aI00
aI00
aI00
aI01
asg1285
I719
sa(dp2933
g1247
S'VBZ'
p2934
sg1252
g1253
sg1257
I01
sg1258
(dp2935
I0
S'VBZ'
p2936
sI1
S'VP'
p2937
sI2
S'S'
ssg1263
I5
sg1264
S'try'
p2938
sg1266
g2855
sg1268
I721
sg1269
g1270
sg1271
I9
sg1275
g1276
sg1280
I721
sg1281
S'w139'
p2939
sg1285
I725
sa(dp2940
g1247
S'TO'
p2941
sg1249
(lp2942
S'A1'
p2943
asg1252
g1253
sg1254
(lp2944
g2855
asg1257
I00
sg1258
(dp2945
I0
S'TO'
p2946
sI1
S'VP'
p2947
sI2
S'S'
sI3
g2937
sI4
S'S'
ssg1262
g2942
sg1263
I6
sg1264
S'to'
p2948
sg1266
S'to'
p2949
sg1268
I727
sg1269
g1270
sg1271
I9
sg1272
(lp2950
g2865
asg1275
g1276
sg1277
(lp2951
S'rl46'
p2952
asg1280
I727
sg1281
S'w140'
p2953
sg1283
(lp2954
I01
asg1285
I728
sa(dp2955
g1247
S'VB'
p2956
sg1249
(lp2957
g2943
asg1252
g1253
sg1254
(lp2958
g2855
asg1257
I01
sg1258
(dp2959
I0
S'VB'
p2960
sI1
S'VP'
p2961
sI2
g2947
sI3
S'S'
sI4
g2937
sI5
S'S'
ssg1262
g2957
sg1263
I7
sg1264
S'raise'
p2962
sg1266
g2856
sg1268
I730
sg1269
g1270
sg1271
I9
sg1272
(lp2963
g2865
asg1275
g1276
sg1277
(lp2964
g2952
asg1280
I730
sg1281
S'w141'
p2965
sg1283
(lp2966
I00
asg1285
I734
sa(dp2967
g1247
S'NNP'
p2968
sg1249
(lp2969
g2943
aS'A1'
p2970
asg1289
(lp2971
S'w142'
p2972
asg1252
S'ORG'
p2973
sg1254
(lp2974
g2855
ag2856
asg1268
S'e11'
p2975
sg1258
(dp2976
I0
S'NNP'
p2977
sI1
S'NP'
p2978
sI2
g2961
sI3
g2947
sI4
S'S'
sI5
g2937
sI6
S'S'
ssg1262
g2969
sg1257
I00
sg1263
I8
sg1264
S'TWA'
p2979
sg1266
S'TWA'
p2980
sg1269
g1270
sg1271
I9
sg1272
(lp2981
g2865
ag2866
asg1275
g2980
sg1277
(lp2982
g2952
aS'rl48'
p2983
asg1280
I736
sg1281
S'w142'
p2984
sg1283
(lp2985
I00
aI01
asg1285
I738
sa(dp2986
g1247
S'CD'
p2987
sg1249
(lp2988
g2943
aS'A1'
p2989
asg1252
g1253
sg1254
(lp2990
g2855
ag2856
asg1257
I00
sg1258
(dp2991
I0
S'CD'
p2992
sI1
g2978
sI2
g2961
sI3
g2947
sI4
S'S'
sI5
g2937
sI6
S'S'
ssg1262
g2988
sg1263
I9
sg1264
S'eight'
p2993
sg1266
S'eight'
p2994
sg1268
I740
sg1269
g1270
sg1271
I9
sg1272
(lp2995
g2865
ag2866
asg1275
g1276
sg1277
(lp2996
g2952
aS'rl49'
p2997
asg1280
I740
sg1281
S'w143'
p2998
sg1283
(lp2999
I00
aI00
asg1285
I744
sa(dp3000
g1247
S'CD'
p3001
sg1249
(lp3002
g2943
ag2989
asg1252
g1253
sg1254
(lp3003
g2855
ag2856
asg1257
I00
sg1258
(dp3004
I0
S'CD'
p3005
sI1
g2978
sI2
g2961
sI3
g2947
sI4
S'S'
sI5
g2937
sI6
S'S'
ssg1262
g3002
sg1263
I10
sg1264
S'hundred'
p3006
sg1266
S'hundred'
p3007
sg1268
I746
sg1269
g1270
sg1271
I9
sg1272
(lp3008
g2865
ag2866
asg1275
g1276
sg1277
(lp3009
g2952
ag2997
asg1280
I746
sg1281
S'w144'
p3010
sg1283
(lp3011
I00
aI01
asg1285
I752
sa(dp3012
g1247
S'.'
sg1252
g1253
sg1257
I00
sg1258
(dp3013
I0
S'.'
sI1
S'S'
ssg1263
I11
sg1264
S'.'
sg1266
S'.'
sg1268
I753
sg1269
g1270
sg1271
I9
sg1275
g1276
sg1280
I753
sg1281
S'w145'
p3014
sg1285
I753
sasI10
(lp3015
(dp3016
g1247
S'NNP'
p3017
sg1289
(lp3018
S'w146'
p3019
asg1252
S'ORG'
p3020
sg1268
S'e12'
p3021
sg1258
(dp3022
I0
S'NNP'
p3023
sI1
S'NP'
p3024
sI2
S'S'
ssg1257
I00
sg1263
I0
sg1264
S'TWA'
p3025
sg1266
S'TWA'
p3026
sg1269
g1270
sg1271
I10
sg1275
g3026
sg1280
I756
sg1281
S'w146'
p3027
sg1285
I758
sa(dp3028
g1247
S'CD'
p3029
sg1252
g1253
sg1257
I00
sg1258
(dp3030
I0
S'CD'
p3031
sI1
g3024
sI2
S'S'
ssg1263
I1
sg1264
S'eight'
p3032
sg1266
S'eight'
p3033
sg1268
I760
sg1269
g1270
sg1271
I10
sg1275
g1276
sg1280
I760
sg1281
S'w147'
p3034
sg1285
I764
sa(dp3035
g1247
S'CD'
p3036
sg1252
g1253
sg1257
I00
sg1258
(dp3037
I0
S'VBD'
p3038
sI1
S'VP'
p3039
sI2
S'S'
ssg1263
I2
sg1264
S'hundred'
p3040
sg1266
S'hundred'
p3041
sg1268
I766
sg1269
g1270
sg1271
I10
sg1275
g1276
sg1280
I766
sg1281
S'w148'
p3042
sg1285
I772
sa(dp3043
g1247
S','
sg1252
g1253
sg1257
I00
sg1258
(dp3044
I0
S','
sI1
g3039
sI2
S'S'
ssg1263
I3
sg1264
S','
sg1266
S','
sg1268
I773
sg1269
g1270
sg1271
I10
sg1275
g1276
sg1280
I773
sg1281
S'w149'
p3045
sg1285
I773
sa(dp3046
g1247
S'IN'
p3047
sg1252
g1253
sg1257
I00
sg1258
(dp3048
I0
S'IN'
p3049
sI1
S'SBAR'
p3050
sI2
g3039
sI3
S'S'
ssg1263
I4
sg1264
S'if'
p3051
sg1266
S'if'
p3052
sg1268
I775
sg1269
g1270
sg1271
I10
sg1275
g1276
sg1280
I775
sg1281
S'w150'
p3053
sg1285
I776
sa(dp3054
g1247
S'PRP'
p3055
sg1249
(lp3056
S'A0'
p3057
aS'A2'
p3058
asg1252
g1253
sg1254
(lp3059
S'hear'
p3060
aS'center'
p3061
asg1257
I00
sg1258
(dp3062
I0
S'PRP'
p3063
sI1
S'NP'
p3064
sI2
S'S'
sI3
g3050
sI4
g3039
sI5
S'S'
ssg1262
g3056
sg1263
I5
sg1264
S'you'
p3065
sg1266
S'you'
p3066
sg1268
I778
sg1269
g1270
sg1271
I10
sg1272
(lp3067
S'pr23'
p3068
aS'pr24'
p3069
asg1275
g1276
sg1277
(lp3070
S'rl52'
p3071
aS'rl54'
p3072
asg1280
I778
sg1281
S'w151'
p3073
sg1283
(lp3074
I01
aI01
asg1285
I780
sa(dp3075
g1247
S'VBP'
p3076
sg1252
g1253
sg1257
I01
sg1258
(dp3077
I0
S'VBP'
p3078
sI1
S'VP'
p3079
sI2
S'S'
sI3
g3050
sI4
g3039
sI5
S'S'
ssg1263
I6
sg1264
S'hear'
p3080
sg1266
g3060
sg1268
I782
sg1269
g1388
sg1271
I10
sg1275
g1276
sg1280
I782
sg1281
S'w152'
p3081
sg1285
I785
sa(dp3082
g1247
S'NN'
p3083
sg1249
(lp3084
S'A1'
p3085
aS'A1'
p3086
asg1252
g1253
sg1254
(lp3087
g3060
ag3061
asg1257
I01
sg1258
(dp3088
I0
S'NN'
p3089
sI1
S'NP'
p3090
sI2
S'NP'
p3091
sI3
g3079
sI4
S'S'
sI5
g3050
sI6
g3039
sI7
S'S'
ssg1262
g3084
sg1263
I7
sg1264
S'center'
p3092
sg1266
g3061
sg1268
I787
sg1269
g1270
sg1271
I10
sg1272
(lp3093
g3068
ag3069
asg1275
g1276
sg1277
(lp3094
S'rl53'
p3095
aS'rl55'
p3096
asg1280
I787
sg1281
S'w153'
p3097
sg1283
(lp3098
I01
aI01
asg1285
I792
sa(dp3099
g1247
S','
sg1252
g1253
sg1257
I00
sg1258
(dp3100
I0
S','
sI1
g3091
sI2
g3079
sI3
S'S'
sI4
g3050
sI5
g3039
sI6
S'S'
ssg1263
I8
sg1264
S','
sg1266
S','
sg1268
I793
sg1269
g1270
sg1271
I10
sg1275
g1276
sg1280
I793
sg1281
S'w154'
p3101
sg1285
I793
sa(dp3102
g1247
S'NN'
p3103
sg1252
g1253
sg1257
I00
sg1258
(dp3104
I0
S'NN'
p3105
sI1
S'NP'
p3106
sI2
g3091
sI3
g3079
sI4
S'S'
sI5
g3050
sI6
g3039
sI7
S'S'
ssg1263
I9
sg1264
S'ident'
p3107
sg1266
S'ident'
p3108
sg1268
I795
sg1269
g1270
sg1271
I10
sg1275
g1276
sg1280
I795
sg1281
S'w155'
p3109
sg1285
I799
sa(dp3110
g1247
S'.'
sg1252
g1253
sg1257
I00
sg1258
(dp3111
I0
S'.'
sI1
S'S'
ssg1263
I10
sg1264
S'.'
sg1266
S'.'
sg1268
I800
sg1269
g1270
sg1271
I10
sg1275
g1276
sg1280
I800
sg1281
S'w156'
p3112
sg1285
I800
sasI11
(lp3113
(dp3114
g1247
S'EX'
p3115
sg1252
g1253
sg1257
I00
sg1258
(dp3116
I0
S'EX'
p3117
sI1
S'NP'
p3118
sI2
S'S'
ssg1263
I0
sg1264
S'there'
p3119
sg1266
S'There'
p3120
sg1268
I803
sg1269
g1270
sg1271
I11
sg1275
g1276
sg1280
I803
sg1281
S'w157'
p3121
sg1285
I807
sa(dp3122
g1247
S'VBZ'
p3123
sg1252
g1253
sg1257
I00
sg1258
(dp3124
I0
S'VBZ'
p3125
sI1
S'VP'
p3126
sI2
S'S'
ssg1263
I1
sg1264
S'be'
p3127
sg1266
S'is'
p3128
sg1268
I809
sg1269
g1270
sg1271
I11
sg1275
g1276
sg1280
I809
sg1281
S'w158'
p3129
sg1285
I810
sa(dp3130
g1247
S'DT'
p3131
sg1249
(lp3132
S'AM-NEG'
p3133
aS'A2'
p3134
asg1252
g1253
sg1254
(lp3135
S'response'
p3136
ag3136
asg1257
I00
sg1258
(dp3137
I0
S'DT'
p3138
sI1
S'NP'
p3139
sI2
g3126
sI3
S'S'
ssg1262
g3132
sg1263
I2
sg1264
S'no'
p3140
sg1266
S'no'
p3141
sg1268
I812
sg1269
g1270
sg1271
I11
sg1272
(lp3142
S'pr25'
p3143
ag3143
asg1275
g1276
sg1277
(lp3144
S'rl56'
p3145
aS'rl57'
p3146
asg1280
I812
sg1281
S'w159'
p3147
sg1283
(lp3148
I01
aI00
asg1285
I813
sa(dp3149
g1247
S'NN'
p3150
sg1249
(lp3151
g3134
asg1252
g1253
sg1254
(lp3152
g3136
asg1257
I01
sg1258
(dp3153
I0
S'NN'
p3154
sI1
g3139
sI2
g3126
sI3
S'S'
ssg1262
g3151
sg1263
I3
sg1264
S'response'
p3155
sg1266
g3136
sg1268
I815
sg1269
g1270
sg1271
I11
sg1272
(lp3156
g3143
asg1275
g1276
sg1277
(lp3157
g3146
asg1280
I815
sg1281
S'w160'
p3158
sg1283
(lp3159
I01
asg1285
I822
sa(dp3160
g1247
S'.'
sg1252
g1253
sg1257
I00
sg1258
(dp3161
I0
S'.'
sI1
S'S'
ssg1263
I4
sg1264
S'.'
sg1266
S'.'
sg1268
I823
sg1269
g1270
sg1271
I11
sg1275
g1276
sg1280
I823
sg1281
S'w161'
p3162
sg1285
I823
sasI12
(lp3163
(dp3164
g1247
S'RB'
p3165
sg1249
(lp3166
S'AM-TMP'
p3167
asg1252
g1253
sg1254
(lp3168
S'asks'
p3169
asg1257
I00
sg1258
(dp3170
I0
S'RB'
p3171
sI1
S'ADVP'
p3172
sI2
S'S'
ssg1262
g3166
sg1263
I0
sg1264
S'later'
p3173
sg1266
S'Later'
p3174
sg1268
I825
sg1269
g1270
sg1271
I12
sg1272
(lp3175
S'pr26'
p3176
asg1275
g1276
sg1277
(lp3177
S'rl58'
p3178
asg1280
I825
sg1281
S'w162'
p3179
sg1283
(lp3180
I01
asg1285
I829
sa(dp3181
g1247
S','
sg1252
g1253
sg1257
I00
sg1258
(dp3182
I0
S','
sI1
S'S'
ssg1263
I1
sg1264
S','
sg1266
S','
sg1268
I830
sg1269
g1270
sg1271
I12
sg1275
g1276
sg1280
I830
sg1281
S'w163'
p3183
sg1285
I830
sa(dp3184
g1247
S'DT'
p3185
sg1249
(lp3186
S'A0'
p3187
asg1252
g1253
sg1254
(lp3188
g3169
asg1257
I00
sg1258
(dp3189
I0
S'DT'
p3190
sI1
S'NP'
p3191
sI2
S'S'
ssg1262
g3186
sg1263
I2
sg1264
S'the'
p3192
sg1266
S'the'
p3193
sg1268
I832
sg1269
g1270
sg1271
I12
sg1272
(lp3194
g3176
asg1275
g1276
sg1277
(lp3195
S'rl59'
p3196
asg1280
I832
sg1281
S'w164'
p3197
sg1283
(lp3198
I00
asg1285
I834
sa(dp3199
g1247
S'NN'
p3200
sg1249
(lp3201
g3187
asg1252
g1253
sg1254
(lp3202
g3169
asg1257
I00
sg1258
(dp3203
I0
S'NN'
p3204
sI1
g3191
sI2
S'S'
ssg1262
g3201
sg1263
I3
sg1264
S'controller'
p3205
sg1266
S'controller'
p3206
sg1268
I836
sg1269
g1270
sg1271
I12
sg1272
(lp3207
g3176
asg1275
g1276
sg1277
(lp3208
g3196
asg1280
I836
sg1281
S'w165'
p3209
sg1283
(lp3210
I01
asg1285
I845
sa(dp3211
g1247
S'VBZ'
p3212
sg1252
g1253
sg1257
I01
sg1258
(dp3213
I0
S'VBZ'
p3214
sI1
S'VP'
p3215
sI2
S'S'
ssg1263
I4
sg1264
S'ask'
p3216
sg1266
g3169
sg1268
I847
sg1269
g1270
sg1271
I12
sg1275
g1276
sg1280
I847
sg1281
S'w166'
p3217
sg1285
I850
sa(dp3218
g1247
S'DT'
p3219
sg1249
(lp3220
S'A2'
p3221
aS'A0'
p3222
asg1252
g1253
sg1254
(lp3223
g3169
aS'pilot'
p3224
asg1257
I00
sg1258
(dp3225
I0
S'DT'
p3226
sI1
S'NP'
p3227
sI2
g3215
sI3
S'S'
ssg1262
g3220
sg1263
I5
sg1264
S'the'
p3228
sg1266
S'the'
p3229
sg1268
I852
sg1269
g1270
sg1271
I12
sg1272
(lp3230
g3176
aS'pr27'
p3231
asg1275
g1276
sg1277
(lp3232
S'rl60'
p3233
aS'rl62'
p3234
asg1280
I852
sg1281
S'w167'
p3235
sg1283
(lp3236
I00
aI00
asg1285
I854
sa(dp3237
g1247
S'NNP'
p3238
sg1249
(lp3239
g3221
aS'A2'
p3240
ag3222
asg1289
(lp3241
S'w168'
p3242
asg1252
S'MISC'
p3243
sg1254
(lp3244
g3169
ag3224
ag3224
asg1268
S'e13'
p3245
sg1258
(dp3246
I0
S'NNP'
p3247
sI1
g3227
sI2
g3215
sI3
S'S'
ssg1262
g3239
sg1257
I00
sg1263
I6
sg1264
S'Eastwind'
p3248
sg1266
S'Eastwind'
p3249
sg1269
g1270
sg1271
I12
sg1272
(lp3250
g3176
ag3231
ag3231
asg1275
g3249
sg1277
(lp3251
g3233
aS'rl61'
p3252
ag3234
asg1280
I856
sg1281
S'w168'
p3253
sg1283
(lp3254
I00
aI01
aI00
asg1285
I863
sa(dp3255
g1247
S'NN'
p3256
sg1249
(lp3257
g3221
ag3222
asg1252
g1253
sg1254
(lp3258
g3169
ag3224
asg1257
I01
sg1258
(dp3259
I0
S'NN'
p3260
sI1
g3227
sI2
g3215
sI3
S'S'
ssg1262
g3257
sg1263
I7
sg1264
S'pilot'
p3261
sg1266
g3224
sg1268
I865
sg1269
g1270
sg1271
I12
sg1272
(lp3262
g3176
ag3231
asg1275
g1276
sg1277
(lp3263
g3233
ag3234
asg1280
I865
sg1281
S'w169'
p3264
sg1283
(lp3265
I01
aI01
asg1285
I869
sa(dp3266
g1247
S'IN'
p3267
sg1249
(lp3268
g3221
ag3222
aS'A1'
p3269
asg1252
g1253
sg1254
(lp3270
g3169
ag3224
ag3224
asg1257
I00
sg1258
(dp3271
I0
S'IN'
p3272
sI1
S'PP'
p3273
sI2
g3215
sI3
S'S'
ssg1262
g3268
sg1263
I8
sg1264
S'for'
p3274
sg1266
S'for'
p3275
sg1268
I871
sg1269
g1270
sg1271
I12
sg1272
(lp3276
g3176
ag3231
ag3231
asg1275
g1276
sg1277
(lp3277
g3233
ag3234
aS'rl63'
p3278
asg1280
I871
sg1281
S'w170'
p3279
sg1283
(lp3280
I00
aI00
aI01
asg1285
I873
sa(dp3281
g1247
S'JJR'
p3282
sg1249
(lp3283
g3221
ag3222
ag3269
aS'AM-EXT'
p3284
asg1252
g1253
sg1254
(lp3285
g3169
ag3224
ag3224
aS'details'
p3286
asg1257
I00
sg1258
(dp3287
I0
S'JJR'
p3288
sI1
S'NP'
p3289
sI2
g3273
sI3
g3215
sI4
S'S'
ssg1262
g3283
sg1263
I9
sg1264
S'much'
p3290
sg1266
S'more'
p3291
sg1268
I875
sg1269
g1270
sg1271
I12
sg1272
(lp3292
g3176
ag3231
ag3231
aS'pr28'
p3293
asg1275
g1276
sg1277
(lp3294
g3233
ag3234
ag3278
aS'rl64'
p3295
asg1280
I875
sg1281
S'w171'
p3296
sg1283
(lp3297
I00
aI00
aI00
aI01
asg1285
I878
sa(dp3298
g1247
S'NNS'
p3299
sg1249
(lp3300
g3221
ag3222
ag3269
asg1252
g1253
sg1254
(lp3301
g3169
ag3224
ag3224
asg1257
I01
sg1258
(dp3302
I0
S'NNS'
p3303
sI1
g3289
sI2
g3273
sI3
g3215
sI4
S'S'
ssg1262
g3300
sg1263
I10
sg1264
S'detail'
p3304
sg1266
g3286
sg1268
I880
sg1269
g1270
sg1271
I12
sg1272
(lp3305
g3176
ag3231
ag3231
asg1275
g1276
sg1277
(lp3306
g3233
ag3234
ag3278
asg1280
I880
sg1281
S'w172'
p3307
sg1283
(lp3308
I00
aI00
aI00
asg1285
I886
sa(dp3309
g1247
S'.'
sg1252
g1253
sg1257
I00
sg1258
(dp3310
I0
S'.'
sI1
S'S'
ssg1263
I11
sg1264
S'.'
sg1266
S'.'
sg1268
I887
sg1269
g1270
sg1271
I12
sg1275
g1276
sg1280
I887
sg1281
S'w173'
p3311
sg1285
I887
sasI13
(lp3312
(dp3313
g1247
S'UH'
p3314
sg1289
(lp3315
S'w174'
p3316
asg1252
S'ORG'
p3317
sg1268
S'e14'
p3318
sg1258
(dp3319
I0
S'UH'
p3320
sI1
S'INTJ'
p3321
sI2
S'FRAG'
p3322
ssg1257
I00
sg1263
I0
sg1264
S'ah'
p3323
sg1266
S'Ah'
p3324
sg1269
g1270
sg1271
I13
sg1275
g3324
sg1280
I890
sg1281
S'w174'
p3325
sg1285
I891
sa(dp3326
g1247
S'UH'
p3327
sg1252
g1253
sg1257
I00
sg1258
(dp3328
I0
S'UH'
p3329
sI1
S'INTJ'
p3330
sI2
g3322
ssg1263
I1
sg1264
S'yes'
p3331
sg1266
S'yes'
p3332
sg1268
I893
sg1269
g1270
sg1271
I13
sg1275
g1276
sg1280
I893
sg1281
S'w175'
p3333
sg1285
I895
sa(dp3334
g1247
S','
sg1252
g1253
sg1257
I00
sg1258
(dp3335
I0
S','
sI1
g3322
ssg1263
I2
sg1264
S','
sg1266
S','
sg1268
I896
sg1269
g1270
sg1271
I13
sg1275
g1276
sg1280
I896
sg1281
S'w176'
p3336
sg1285
I896
sa(dp3337
g1247
S'NN'
p3338
sg1252
g1253
sg1257
I00
sg1258
(dp3339
I0
S'NN'
p3340
sI1
S'NP'
p3341
sI2
g3322
ssg1263
I3
sg1264
S'sir'
p3342
sg1266
S'sir'
p3343
sg1268
I898
sg1269
g1270
sg1271
I13
sg1275
g1276
sg1280
I898
sg1281
S'w177'
p3344
sg1285
I900
sa(dp3345
g1247
S'.'
sg1252
g1253
sg1257
I00
sg1258
(dp3346
I0
S'.'
sI1
g3322
ssg1263
I4
sg1264
S'.'
sg1266
S'.'
sg1268
I901
sg1269
g1270
sg1271
I13
sg1275
g1276
sg1280
I901
sg1281
S'w178'
p3347
sg1285
I901
sasI14
(lp3348
(dp3349
g1247
S'PRP'
p3350
sg1249
(lp3351
S'A1'
p3352
aS'C-A1'
p3353
asg1252
g1253
sg1254
(lp3354
S'go'
p3355
aS'saw'
p3356
asg1257
I00
sg1258
(dp3357
I0
S'PRP'
p3358
sI1
S'NP'
p3359
sI2
S'S'
sI3
S'S'
ssg1262
g3351
sg1263
I0
sg1264
S'it'
p3360
sg1266
S'It'
p3361
sg1268
I903
sg1269
g1270
sg1271
I14
sg1272
(lp3362
S'pr29'
p3363
aS'pr31'
p3364
asg1275
g1276
sg1277
(lp3365
S'rl65'
p3366
aS'rl75'
p3367
asg1280
I903
sg1281
S'w179'
p3368
sg1283
(lp3369
I01
aI00
asg1285
I904
sa(dp3370
g1247
S':'
sg1252
g1253
sg1257
I00
sg1258
(dp3371
I0
S':'
sI1
S'S'
sI2
S'S'
ssg1263
I1
sg1264
S'-'
sg1266
S'-'
sg1268
I905
sg1269
g1270
sg1271
I14
sg1275
g1276
sg1280
I905
sg1281
S'w180'
p3372
sg1285
I905
sa(dp3373
g1247
S'PRP'
p3374
sg1249
(lp3375
S'A1'
p3376
asg1252
g1253
sg1254
(lp3377
S'blew'
p3378
asg1257
I00
sg1258
(dp3379
I0
S'PRP'
p3380
sI1
S'NP'
p3381
sI2
S'S'
sI3
S'S'
ssg1262
g3375
sg1263
I2
sg1264
S'it'
p3382
sg1266
S'It'
p3383
sg1268
I907
sg1269
g1270
sg1271
I14
sg1272
(lp3384
S'pr30'
p3385
asg1275
g1276
sg1277
(lp3386
S'rl69'
p3387
asg1280
I907
sg1281
S'w181'
p3388
sg1283
(lp3389
I01
asg1285
I908
sa(dp3390
g1247
S'RB'
p3391
sg1249
(lp3392
S'AM-ADV'
p3393
asg1252
g1253
sg1254
(lp3394
g3378
asg1257
I00
sg1258
(dp3395
I0
S'RB'
p3396
sI1
S'ADVP'
p3397
sI2
S'S'
sI3
S'S'
ssg1262
g3392
sg1263
I3
sg1264
S'just'
p3398
sg1266
S'just'
p3399
sg1268
I910
sg1269
g1270
sg1271
I14
sg1272
(lp3400
g3385
asg1275
g1276
sg1277
(lp3401
S'rl70'
p3402
asg1280
I910
sg1281
S'w182'
p3403
sg1283
(lp3404
I01
asg1285
I913
sa(dp3405
g1247
S'VBD'
p3406
sg1252
g1253
sg1257
I01
sg1258
(dp3407
I0
S'VBD'
p3408
sI1
S'VP'
p3409
sI2
S'S'
sI3
S'S'
ssg1263
I4
sg1264
S'blow'
p3410
sg1266
g3378
sg1268
I915
sg1269
g1388
sg1271
I14
sg1275
g1276
sg1280
I915
sg1281
S'w183'
p3411
sg1285
I918
sa(dp3412
g1247
S'RP'
p3413
sg1252
g1253
sg1257
I00
sg1258
(dp3414
I0
S'RP'
p3415
sI1
S'PRT'
p3416
sI2
g3409
sI3
S'S'
sI4
S'S'
ssg1263
I5
sg1264
S'up'
p3417
sg1266
S'up'
p3418
sg1268
I920
sg1269
g1270
sg1271
I14
sg1275
g1276
sg1280
I920
sg1281
S'w184'
p3419
sg1285
I921
sa(dp3420
g1247
S'IN'
p3421
sg1249
(lp3422
S'AM-LOC'
p3423
asg1252
g1253
sg1254
(lp3424
g3378
asg1257
I00
sg1258
(dp3425
I0
S'IN'
p3426
sI1
S'PP'
p3427
sI2
g3409
sI3
S'S'
sI4
S'S'
ssg1262
g3422
sg1263
I6
sg1264
S'in'
p3428
sg1266
S'in'
p3429
sg1268
I923
sg1269
g1270
sg1271
I14
sg1272
(lp3430
g3385
asg1275
g1276
sg1277
(lp3431
S'rl71'
p3432
asg1280
I923
sg1281
S'w185'
p3433
sg1283
(lp3434
I01
asg1285
I924
sa(dp3435
g1247
S'DT'
p3436
sg1249
(lp3437
g3423
asg1252
g1253
sg1254
(lp3438
g3378
asg1257
I00
sg1258
(dp3439
I0
S'DT'
p3440
sI1
S'NP'
p3441
sI2
g3427
sI3
g3409
sI4
S'S'
sI5
S'S'
ssg1262
g3437
sg1263
I7
sg1264
S'the'
p3442
sg1266
S'the'
p3443
sg1268
I926
sg1269
g1270
sg1271
I14
sg1272
(lp3444
g3385
asg1275
g1276
sg1277
(lp3445
g3432
asg1280
I926
sg1281
S'w186'
p3446
sg1283
(lp3447
I00
asg1285
I928
sa(dp3448
g1247
S'NN'
p3449
sg1249
(lp3450
g3423
asg1252
g1253
sg1254
(lp3451
g3378
asg1257
I00
sg1258
(dp3452
I0
S'NN'
p3453
sI1
g3441
sI2
g3427
sI3
g3409
sI4
S'S'
sI5
S'S'
ssg1262
g3450
sg1263
I8
sg1264
S'air'
p3454
sg1266
S'air'
p3455
sg1268
I930
sg1269
g1270
sg1271
I14
sg1272
(lp3456
g3385
asg1275
g1276
sg1277
(lp3457
g3432
asg1280
I930
sg1281
S'w187'
p3458
sg1283
(lp3459
I00
asg1285
I932
sa(dp3460
g1247
S','
sg1252
g1253
sg1257
I00
sg1258
(dp3461
I0
S','
sI1
S'S'
ssg1263
I9
sg1264
S','
sg1266
S','
sg1268
I933
sg1269
g1270
sg1271
I14
sg1275
g1276
sg1280
I933
sg1281
S'w188'
p3462
sg1285
I933
sa(dp3463
g1247
S'CC'
p3464
sg1252
g1253
sg1257
I00
sg1258
(dp3465
I0
S'CC'
p3466
sI1
S'S'
ssg1263
I10
sg1264
S'and'
p3467
sg1266
S'and'
p3468
sg1268
I935
sg1269
g1270
sg1271
I14
sg1275
g1276
sg1280
I935
sg1281
S'w189'
p3469
sg1285
I937
sa(dp3470
g1247
S'RB'
p3471
sg1249
(lp3472
S'AM-TMP'
p3473
asg1252
g1253
sg1254
(lp3474
g3356
asg1257
I00
sg1258
(dp3475
I0
S'RB'
p3476
sI1
S'ADVP'
p3477
sI2
S'S'
sI3
S'S'
ssg1262
g3472
sg1263
I11
sg1264
S'then'
p3478
sg1266
S'then'
p3479
sg1268
I939
sg1269
g1270
sg1271
I14
sg1272
(lp3480
g3364
asg1275
g1276
sg1277
(lp3481
S'rl72'
p3482
asg1280
I939
sg1281
S'w190'
p3483
sg1283
(lp3484
I01
asg1285
I942
sa(dp3485
g1247
S'PRP'
p3486
sg1249
(lp3487
S'A0'
p3488
asg1252
g1253
sg1254
(lp3489
g3356
asg1257
I00
sg1258
(dp3490
I0
S'PRP'
p3491
sI1
S'NP'
p3492
sI2
S'S'
sI3
S'S'
ssg1262
g3487
sg1263
I12
sg1264
S'we'
p3493
sg1266
S'we'
p3494
sg1268
I944
sg1269
g1270
sg1271
I14
sg1272
(lp3495
g3364
asg1275
g1276
sg1277
(lp3496
S'rl73'
p3497
asg1280
I944
sg1281
S'w191'
p3498
sg1283
(lp3499
I01
asg1285
I945
sa(dp3500
g1247
S'VBD'
p3501
sg1252
g1253
sg1257
I01
sg1258
(dp3502
I0
S'VBD'
p3503
sI1
S'VP'
p3504
sI2
S'S'
sI3
S'S'
ssg1263
I13
sg1264
S'see'
p3505
sg1266
g3356
sg1268
I947
sg1269
g1388
sg1271
I14
sg1275
g1276
sg1280
I947
sg1281
S'w192'
p3506
sg1285
I949
sa(dp3507
g1247
S'CD'
p3508
sg1249
(lp3509
S'A1'
p3510
asg1252
g1253
sg1254
(lp3511
g3356
asg1257
I00
sg1258
(dp3512
I0
S'CD'
p3513
sI1
S'NP'
p3514
sI2
S'S'
sI3
g3504
sI4
S'S'
sI5
S'S'
ssg1262
g3509
sg1263
I14
sg1264
S'two'
p3515
sg1266
S'two'
p3516
sg1268
I951
sg1269
g1270
sg1271
I14
sg1272
(lp3517
g3364
asg1275
g1276
sg1277
(lp3518
S'rl74'
p3519
asg1280
I951
sg1281
S'w193'
p3520
sg1283
(lp3521
I00
asg1285
I953
sa(dp3522
g1247
S'NNS'
p3523
sg1249
(lp3524
g3510
asg1252
g1253
sg1254
(lp3525
g3356
asg1257
I00
sg1258
(dp3526
I0
S'NNS'
p3527
sI1
g3514
sI2
S'S'
sI3
g3504
sI4
S'S'
sI5
S'S'
ssg1262
g3524
sg1263
I15
sg1264
S'fireball'
p3528
sg1266
S'fireballs'
p3529
sg1268
I955
sg1269
g1270
sg1271
I14
sg1272
(lp3530
g3364
asg1275
g1276
sg1277
(lp3531
g3519
asg1280
I955
sg1281
S'w194'
p3532
sg1283
(lp3533
I01
asg1285
I963
sa(dp3534
g1247
S'VBP'
p3535
sg1249
(lp3536
g3353
asg1252
g1253
sg1254
(lp3537
g3356
asg1257
I01
sg1258
(dp3538
I0
S'VBP'
p3539
sI1
S'VP'
p3540
sI2
S'S'
sI3
g3504
sI4
S'S'
sI5
S'S'
ssg1262
g3536
sg1263
I16
sg1264
S'go'
p3541
sg1266
g3355
sg1268
I965
sg1269
g1388
sg1271
I14
sg1272
(lp3542
g3364
asg1275
g1276
sg1277
(lp3543
g3367
asg1280
I965
sg1281
S'w195'
p3544
sg1283
(lp3545
I01
asg1285
I966
sa(dp3546
g1247
S'RP'
p3547
sg1249
(lp3548
S'AM-DIR'
p3549
ag3353
asg1252
g1253
sg1254
(lp3550
g3355
ag3356
asg1257
I00
sg1258
(dp3551
I0
S'RB'
p3552
sI1
S'ADVP'
p3553
sI2
g3540
sI3
S'S'
sI4
g3504
sI5
S'S'
sI6
S'S'
ssg1262
g3548
sg1263
I17
sg1264
S'down'
p3554
sg1266
S'down'
p3555
sg1268
I968
sg1269
g1270
sg1271
I14
sg1272
(lp3556
g3363
ag3364
asg1275
g1276
sg1277
(lp3557
S'rl66'
p3558
ag3367
asg1280
I968
sg1281
S'w196'
p3559
sg1283
(lp3560
I01
aI00
asg1285
I971
sa(dp3561
g1247
S'TO'
p3562
sg1249
(lp3563
S'A4'
p3564
ag3353
asg1252
g1253
sg1254
(lp3565
g3355
ag3356
asg1257
I00
sg1258
(dp3566
I0
S'TO'
p3567
sI1
S'PP'
p3568
sI2
g3553
sI3
g3540
sI4
S'S'
sI5
g3504
sI6
S'S'
sI7
S'S'
ssg1262
g3563
sg1263
I18
sg1264
S'to'
p3569
sg1266
S'to'
p3570
sg1268
I973
sg1269
g1270
sg1271
I14
sg1272
(lp3571
g3363
ag3364
asg1275
g1276
sg1277
(lp3572
S'rl67'
p3573
ag3367
asg1280
I973
sg1281
S'w197'
p3574
sg1283
(lp3575
I01
aI00
asg1285
I974
sa(dp3576
g1247
S'DT'
p3577
sg1249
(lp3578
g3564
ag3353
asg1252
g1253
sg1254
(lp3579
g3355
ag3356
asg1257
I00
sg1258
(dp3580
I0
S'DT'
p3581
sI1
S'NP'
p3582
sI2
g3568
sI3
g3553
sI4
g3540
sI5
S'S'
sI6
g3504
sI7
S'S'
sI8
S'S'
ssg1262
g3578
sg1263
I19
sg1264
S'the'
p3583
sg1266
S'the'
p3584
sg1268
I976
sg1269
g1270
sg1271
I14
sg1272
(lp3585
g3363
ag3364
asg1275
g1276
sg1277
(lp3586
g3573
ag3367
asg1280
I976
sg1281
S'w198'
p3587
sg1283
(lp3588
I00
aI00
asg1285
I978
sa(dp3589
g1247
S','
sg1249
(lp3590
g3353
asg1252
g1253
sg1254
(lp3591
g3356
asg1257
I00
sg1258
(dp3592
I0
S','
sI1
g3540
sI2
S'S'
sI3
g3504
sI4
S'S'
sI5
S'S'
ssg1262
g3590
sg1263
I20
sg1264
S','
sg1266
S','
sg1268
I979
sg1269
g1270
sg1271
I14
sg1272
(lp3593
g3364
asg1275
g1276
sg1277
(lp3594
g3367
asg1280
I979
sg1281
S'w199'
p3595
sg1283
(lp3596
I00
asg1285
I979
sa(dp3597
g1247
S'TO'
p3598
sg1249
(lp3599
S'A4'
p3600
ag3353
asg1252
g1253
sg1254
(lp3601
g3355
ag3356
asg1257
I00
sg1258
(dp3602
I0
S'TO'
p3603
sI1
S'PP'
p3604
sI2
g3540
sI3
S'S'
sI4
g3504
sI5
S'S'
sI6
S'S'
ssg1262
g3599
sg1263
I21
sg1264
S'to'
p3605
sg1266
S'to'
p3606
sg1268
I981
sg1269
g1270
sg1271
I14
sg1272
(lp3607
g3363
ag3364
asg1275
g1276
sg1277
(lp3608
S'rl68'
p3609
ag3367
asg1280
I981
sg1281
S'w200'
p3610
sg1283
(lp3611
I01
aI00
asg1285
I982
sa(dp3612
g1247
S'DT'
p3613
sg1249
(lp3614
g3600
ag3353
asg1252
g1253
sg1254
(lp3615
g3355
ag3356
asg1257
I00
sg1258
(dp3616
I0
S'DT'
p3617
sI1
S'NP'
p3618
sI2
g3604
sI3
g3540
sI4
S'S'
sI5
g3504
sI6
S'S'
sI7
S'S'
ssg1262
g3614
sg1263
I22
sg1264
S'the'
p3619
sg1266
S'the'
p3620
sg1268
I984
sg1269
g1270
sg1271
I14
sg1272
(lp3621
g3363
ag3364
asg1275
g1276
sg1277
(lp3622
g3609
ag3367
asg1280
I984
sg1281
S'w201'
p3623
sg1283
(lp3624
I00
aI00
asg1285
I986
sa(dp3625
g1247
S'NN'
p3626
sg1249
(lp3627
g3600
ag3353
asg1252
g1253
sg1254
(lp3628
g3355
ag3356
asg1257
I00
sg1258
(dp3629
I0
S'NN'
p3630
sI1
g3618
sI2
g3604
sI3
g3540
sI4
S'S'
sI5
g3504
sI6
S'S'
sI7
S'S'
ssg1262
g3627
sg1263
I23
sg1264
S'water'
p3631
sg1266
S'water'
p3632
sg1268
I988
sg1269
g1270
sg1271
I14
sg1272
(lp3633
g3363
ag3364
asg1275
g1276
sg1277
(lp3634
g3609
ag3367
asg1280
I988
sg1281
S'w202'
p3635
sg1283
(lp3636
I00
aI00
asg1285
I992
sa(dp3637
g1247
S','
sg1249
(lp3638
g3353
asg1252
g1253
sg1254
(lp3639
g3356
asg1257
I00
sg1258
(dp3640
I0
S','
sI1
S'S'
ssg1262
g3638
sg1263
I24
sg1264
S','
sg1266
S','
sg1268
I993
sg1269
g1270
sg1271
I14
sg1272
(lp3641
g3364
asg1275
g1276
sg1277
(lp3642
g3367
asg1280
I993
sg1281
S'w203'
p3643
sg1283
(lp3644
I00
asg1285
I993
sa(dp3645
g1247
S'CC'
p3646
sg1249
(lp3647
g3353
asg1252
g1253
sg1254
(lp3648
g3356
asg1257
I00
sg1258
(dp3649
I0
S'CC'
p3650
sI1
S'S'
ssg1262
g3647
sg1263
I25
sg1264
S'and'
p3651
sg1266
S'and'
p3652
sg1268
I995
sg1269
g1270
sg1271
I14
sg1272
(lp3653
g3364
asg1275
g1276
sg1277
(lp3654
g3367
asg1280
I995
sg1281
S'w204'
p3655
sg1283
(lp3656
I00
asg1285
I997
sa(dp3657
g1247
S'EX'
p3658
sg1249
(lp3659
g3353
asg1252
g1253
sg1254
(lp3660
g3356
asg1257
I00
sg1258
(dp3661
I0
S'EX'
p3662
sI1
S'NP'
p3663
sI2
S'S'
sI3
S'S'
ssg1262
g3659
sg1263
I26
sg1264
S'there'
p3664
sg1266
S'there'
p3665
sg1268
I999
sg1269
g1270
sg1271
I14
sg1272
(lp3666
g3364
asg1275
g1276
sg1277
(lp3667
g3367
asg1280
I999
sg1281
S'w205'
p3668
sg1283
(lp3669
I00
asg1285
I1003
sa(dp3670
g1247
S'VBD'
p3671
sg1249
(lp3672
g3353
asg1252
g1253
sg1254
(lp3673
g3356
asg1257
I00
sg1258
(dp3674
I0
S'VBD'
p3675
sI1
S'VP'
p3676
sI2
S'S'
sI3
S'S'
ssg1262
g3672
sg1263
I27
sg1264
S'be'
p3677
sg1266
S'was'
p3678
sg1268
I1005
sg1269
g1388
sg1271
I14
sg1272
(lp3679
g3364
asg1275
g1276
sg1277
(lp3680
g3367
asg1280
I1005
sg1281
S'w206'
p3681
sg1283
(lp3682
I00
asg1285
I1007
sa(dp3683
g1247
S'DT'
p3684
sg1249
(lp3685
g3353
asg1252
g1253
sg1254
(lp3686
g3356
asg1257
I00
sg1258
(dp3687
I0
S'DT'
p3688
sI1
S'NP'
p3689
sI2
g3676
sI3
S'S'
sI4
S'S'
ssg1262
g3685
sg1263
I28
sg1264
S'a'
sg1266
S'a'
sg1268
I1009
sg1269
g1270
sg1271
I14
sg1272
(lp3690
g3364
asg1275
g1276
sg1277
(lp3691
g3367
asg1280
I1009
sg1281
S'w207'
p3692
sg1283
(lp3693
I00
asg1285
I1009
sa(dp3694
g1247
S'JJ'
p3695
sg1249
(lp3696
g3353
asg1252
g1253
sg1254
(lp3697
g3356
asg1257
I00
sg1258
(dp3698
I0
S'JJ'
p3699
sI1
g3689
sI2
g3676
sI3
S'S'
sI4
S'S'
ssg1262
g3696
sg1263
I29
sg1264
S'big'
p3700
sg1266
S'big'
p3701
sg1268
I1011
sg1269
g1270
sg1271
I14
sg1272
(lp3702
g3364
asg1275
g1276
sg1277
(lp3703
g3367
asg1280
I1011
sg1281
S'w208'
p3704
sg1283
(lp3705
I00
asg1285
I1013
sa(dp3706
g1247
S'JJ'
p3707
sg1249
(lp3708
g3353
asg1252
g1253
sg1254
(lp3709
g3356
asg1257
I00
sg1258
(dp3710
I0
S'JJ'
p3711
sI1
g3689
sI2
g3676
sI3
S'S'
sI4
S'S'
ssg1262
g3708
sg1263
I30
sg1264
S'small'
p3712
sg1266
S'small'
p3713
sg1268
I1015
sg1269
g1270
sg1271
I14
sg1272
(lp3714
g3364
asg1275
g1276
sg1277
(lp3715
g3367
asg1280
I1015
sg1281
S'w209'
p3716
sg1283
(lp3717
I00
asg1285
I1019
sa(dp3718
g1247
S','
sg1249
(lp3719
g3353
asg1252
g1253
sg1254
(lp3720
g3356
asg1257
I00
sg1258
(dp3721
I0
S','
sI1
g3689
sI2
g3676
sI3
S'S'
sI4
S'S'
ssg1262
g3719
sg1263
I31
sg1264
S','
sg1266
S','
sg1268
I1020
sg1269
g1270
sg1271
I14
sg1272
(lp3722
g3364
asg1275
g1276
sg1277
(lp3723
g3367
asg1280
I1020
sg1281
S'w210'
p3724
sg1283
(lp3725
I00
asg1285
I1020
sa(dp3726
g1247
S'UH'
p3727
sg1249
(lp3728
g3353
asg1252
g1253
sg1254
(lp3729
g3356
asg1257
I00
sg1258
(dp3730
I0
S'UH'
p3731
sI1
g3689
sI2
g3676
sI3
S'S'
sI4
S'S'
ssg1262
g3728
sg1263
I32
sg1264
S'ah'
p3732
sg1266
S'ah'
p3733
sg1268
I1022
sg1269
g1270
sg1271
I14
sg1272
(lp3734
g3364
asg1275
g1276
sg1277
(lp3735
g3367
asg1280
I1022
sg1281
S'w211'
p3736
sg1283
(lp3737
I00
asg1285
I1023
sa(dp3738
g1247
S','
sg1249
(lp3739
g3353
asg1252
g1253
sg1254
(lp3740
g3356
asg1257
I00
sg1258
(dp3741
I0
S','
sI1
g3689
sI2
g3676
sI3
S'S'
sI4
S'S'
ssg1262
g3739
sg1263
I33
sg1264
S','
sg1266
S','
sg1268
I1024
sg1269
g1270
sg1271
I14
sg1272
(lp3742
g3364
asg1275
g1276
sg1277
(lp3743
g3367
asg1280
I1024
sg1281
S'w212'
p3744
sg1283
(lp3745
I00
asg1285
I1024
sa(dp3746
g1247
S'NN'
p3747
sg1249
(lp3748
g3353
asg1252
g1253
sg1254
(lp3749
g3356
asg1257
I00
sg1258
(dp3750
I0
S'NN'
p3751
sI1
g3689
sI2
g3676
sI3
S'S'
sI4
S'S'
ssg1262
g3748
sg1263
I34
sg1264
S'smoke'
p3752
sg1266
S'smoke'
p3753
sg1268
I1026
sg1269
g1270
sg1271
I14
sg1272
(lp3754
g3364
asg1275
g1276
sg1277
(lp3755
g3367
asg1280
I1026
sg1281
S'w213'
p3756
sg1283
(lp3757
I00
asg1285
I1030
sa(dp3758
g1247
S','
sg1249
(lp3759
g3353
asg1252
g1253
sg1254
(lp3760
g3356
asg1257
I00
sg1258
(dp3761
I0
S','
sI1
g3676
sI2
S'S'
sI3
S'S'
ssg1262
g3759
sg1263
I35
sg1264
S','
sg1266
S','
sg1268
I1031
sg1269
g1270
sg1271
I14
sg1272
(lp3762
g3364
asg1275
g1276
sg1277
(lp3763
g3367
asg1280
I1031
sg1281
S'w214'
p3764
sg1283
(lp3765
I00
asg1285
I1031
sa(dp3766
g1247
S'IN'
p3767
sg1249
(lp3768
g3353
asg1252
g1253
sg1254
(lp3769
g3356
asg1257
I00
sg1258
(dp3770
I0
S'IN'
p3771
sI1
S'PP'
p3772
sI2
g3676
sI3
S'S'
sI4
S'S'
ssg1262
g3768
sg1263
I36
sg1264
S'from'
p3773
sg1266
S'from'
p3774
sg1268
I1033
sg1269
g1270
sg1271
I14
sg1272
(lp3775
g3364
asg1275
g1276
sg1277
(lp3776
g3367
asg1280
I1033
sg1281
S'w215'
p3777
sg1283
(lp3778
I00
asg1285
I1036
sa(dp3779
g1247
S'NN'
p3780
sg1249
(lp3781
g3353
asg1252
g1253
sg1254
(lp3782
g3356
asg1257
I00
sg1258
(dp3783
I0
S'UH'
p3784
sI1
S'NP'
p3785
sI2
g3772
sI3
g3676
sI4
S'S'
sI5
S'S'
ssg1262
g3781
sg1263
I37
sg1264
S'ah'
p3786
sg1266
S'ah'
p3787
sg1268
I1038
sg1269
g1270
sg1271
I14
sg1272
(lp3788
g3364
asg1275
g1276
sg1277
(lp3789
g3367
asg1280
I1038
sg1281
S'w216'
p3790
sg1283
(lp3791
I00
asg1285
I1039
sa(dp3792
g1247
S','
sg1249
(lp3793
g3353
asg1252
g1253
sg1254
(lp3794
g3356
asg1257
I00
sg1258
(dp3795
I0
S','
sI1
g3676
sI2
S'S'
sI3
S'S'
ssg1262
g3793
sg1263
I38
sg1264
S','
sg1266
S','
sg1268
I1040
sg1269
g1270
sg1271
I14
sg1272
(lp3796
g3364
asg1275
g1276
sg1277
(lp3797
g3367
asg1280
I1040
sg1281
S'w217'
p3798
sg1283
(lp3799
I00
asg1285
I1040
sa(dp3800
g1247
S'VBG'
p3801
sg1249
(lp3802
g3353
asg1252
g1253
sg1254
(lp3803
g3356
asg1257
I01
sg1258
(dp3804
I0
S'VBG'
p3805
sI1
S'VP'
p3806
sI2
S'S'
sI3
g3676
sI4
S'S'
sI5
S'S'
ssg1262
g3802
sg1263
I39
sg1264
S'come'
p3807
sg1266
S'coming'
p3808
sg1268
I1042
sg1269
g1270
sg1271
I14
sg1272
(lp3809
g3364
asg1275
g1276
sg1277
(lp3810
g3367
asg1280
I1042
sg1281
S'w218'
p3811
sg1283
(lp3812
I00
asg1285
I1047
sa(dp3813
g1247
S'RP'
p3814
sg1249
(lp3815
g3353
asg1252
g1253
sg1254
(lp3816
g3356
asg1257
I00
sg1258
(dp3817
I0
S'RB'
p3818
sI1
S'ADVP'
p3819
sI2
g3806
sI3
S'S'
sI4
g3676
sI5
S'S'
sI6
S'S'
ssg1262
g3815
sg1263
I40
sg1264
S'up'
p3820
sg1266
S'up'
p3821
sg1268
I1049
sg1269
g1270
sg1271
I14
sg1272
(lp3822
g3364
asg1275
g1276
sg1277
(lp3823
g3367
asg1280
I1049
sg1281
S'w219'
p3824
sg1283
(lp3825
I00
asg1285
I1050
sa(dp3826
g1247
S'IN'
p3827
sg1249
(lp3828
g3353
aS'A2'
p3829
asg1252
g1253
sg1254
(lp3830
g3356
ag3808
asg1257
I00
sg1258
(dp3831
I0
S'IN'
p3832
sI1
S'PP'
p3833
sI2
g3806
sI3
S'S'
sI4
g3676
sI5
S'S'
sI6
S'S'
ssg1262
g3828
sg1263
I41
sg1264
S'from'
p3834
sg1266
S'from'
p3835
sg1268
I1052
sg1269
g1270
sg1271
I14
sg1272
(lp3836
g3364
aS'pr32'
p3837
asg1275
g1276
sg1277
(lp3838
g3367
aS'rl76'
p3839
asg1280
I1052
sg1281
S'w220'
p3840
sg1283
(lp3841
I00
aI01
asg1285
I1055
sa(dp3842
g1247
S'DT'
p3843
sg1249
(lp3844
g3353
ag3829
asg1252
g1253
sg1254
(lp3845
g3356
ag3808
asg1257
I00
sg1258
(dp3846
I0
S'DT'
p3847
sI1
S'NP'
p3848
sI2
g3833
sI3
g3806
sI4
S'S'
sI5
g3676
sI6
S'S'
sI7
S'S'
ssg1262
g3844
sg1263
I42
sg1264
S'that'
p3849
sg1266
S'that'
p3850
sg1268
I1057
sg1269
g1270
sg1271
I14
sg1272
(lp3851
g3364
ag3837
asg1275
g1276
sg1277
(lp3852
g3367
ag3839
asg1280
I1057
sg1281
S'w221'
p3853
sg1283
(lp3854
I00
aI00
asg1285
I1060
sa(dp3855
g1247
S'.'
sg1252
g1253
sg1257
I00
sg1258
(dp3856
I0
S'.'
sI1
S'S'
ssg1263
I43
sg1264
S'.'
sg1266
S'.'
sg1268
I1061
sg1269
g1270
sg1271
I14
sg1275
g1276
sg1280
I1061
sg1281
S'w222'
p3857
sg1285
I1061
sasI15
(lp3858
(dp3859
g1247
S'IN'
p3860
sg1249
(lp3861
S'AM-TMP'
p3862
asg1252
g1253
sg1254
(lp3863
S'said'
p3864
asg1257
I00
sg1258
(dp3865
I0
S'IN'
p3866
sI1
S'PP'
p3867
sI2
S'S'
ssg1262
g3861
sg1263
I0
sg1264
S'at'
p3868
sg1266
S'At'
p3869
sg1268
I1064
sg1269
g1270
sg1271
I15
sg1272
(lp3870
S'pr33'
p3871
asg1275
g1276
sg1277
(lp3872
S'rl77'
p3873
asg1280
I1064
sg1281
S'w223'
p3874
sg1283
(lp3875
I01
asg1285
I1065
sa(dp3876
g1247
S'CD'
p3877
sg1249
(lp3878
g3862
aS'A1'
p3879
asg1252
g1253
sg1254
(lp3880
g3864
aS'became'
p3881
asg1257
I00
sg1258
(dp3882
I0
S'CD'
p3883
sI1
S'NP'
p3884
sI2
g3867
sI3
S'S'
ssg1262
g3878
sg1263
I1
sg1264
S'one'
p3885
sg1266
S'one'
p3886
sg1268
I1067
sg1269
g1270
sg1271
I15
sg1272
(lp3887
g3871
aS'pr34'
p3888
asg1275
g1276
sg1277
(lp3889
g3873
aS'rl80'
p3890
asg1280
I1067
sg1281
S'w224'
p3891
sg1283
(lp3892
I00
aI00
asg1285
I1069
sa(dp3893
g1247
S'NN'
p3894
sg1249
(lp3895
g3862
ag3879
asg1252
g1253
sg1254
(lp3896
g3864
ag3881
asg1257
I00
sg1258
(dp3897
I0
S'NN'
p3898
sI1
g3884
sI2
g3867
sI3
S'S'
ssg1262
g3895
sg1263
I2
sg1264
S'point'
p3899
sg1266
S'point'
p3900
sg1268
I1071
sg1269
g1270
sg1271
I15
sg1272
(lp3901
g3871
ag3888
asg1275
g1276
sg1277
(lp3902
g3873
ag3890
asg1280
I1071
sg1281
S'w225'
p3903
sg1283
(lp3904
I00
aI01
asg1285
I1075
sa(dp3905
g1247
S','
sg1249
(lp3906
g3862
ag3879
asg1252
g1253
sg1254
(lp3907
g3864
ag3881
asg1257
I00
sg1258
(dp3908
I0
S','
sI1
S'S'
ssg1262
g3906
sg1263
I3
sg1264
S','
sg1266
S','
sg1268
I1076
sg1269
g1270
sg1271
I15
sg1272
(lp3909
g3871
ag3888
asg1275
g1276
sg1277
(lp3910
g3873
ag3890
asg1280
I1076
sg1281
S'w226'
p3911
sg1283
(lp3912
I00
aI00
asg1285
I1076
sa(dp3913
g1247
S'WRB'
p3914
sg1249
(lp3915
g3862
ag3879
aS'R-AM-TMP'
p3916
asg1252
g1253
sg1254
(lp3917
g3864
ag3881
ag3881
asg1257
I00
sg1258
(dp3918
I0
S'WRB'
p3919
sI1
S'WHADVP'
p3920
sI2
S'SBAR'
p3921
sI3
S'S'
ssg1262
g3915
sg1263
I4
sg1264
S'when'
p3922
sg1266
S'when'
p3923
sg1268
I1078
sg1269
g1270
sg1271
I15
sg1272
(lp3924
g3871
ag3888
ag3888
asg1275
g1276
sg1277
(lp3925
g3873
ag3890
aS'rl81'
p3926
asg1280
I1078
sg1281
S'w227'
p3927
sg1283
(lp3928
I00
aI00
aI01
asg1285
I1081
sa(dp3929
g1247
S'PRP'
p3930
sg1249
(lp3931
g3862
ag3879
aS'A1'
p3932
asg1252
g1253
sg1254
(lp3933
g3864
ag3881
ag3881
asg1257
I00
sg1258
(dp3934
I0
S'PRP'
p3935
sI1
S'NP'
p3936
sI2
S'S'
sI3
g3921
sI4
S'S'
ssg1262
g3931
sg1263
I5
sg1264
S'it'
p3937
sg1266
S'it'
p3938
sg1268
I1083
sg1269
g1270
sg1271
I15
sg1272
(lp3939
g3871
ag3888
ag3888
asg1275
g1276
sg1277
(lp3940
g3873
ag3890
aS'rl82'
p3941
asg1280
I1083
sg1281
S'w228'
p3942
sg1283
(lp3943
I00
aI00
aI01
asg1285
I1084
sa(dp3944
g1247
S'VBD'
p3945
sg1249
(lp3946
g3862
ag3879
asg1252
g1253
sg1254
(lp3947
g3864
ag3881
asg1257
I01
sg1258
(dp3948
I0
S'VBD'
p3949
sI1
S'VP'
p3950
sI2
S'S'
sI3
g3921
sI4
S'S'
ssg1262
g3946
sg1263
I6
sg1264
S'become'
p3951
sg1266
g3881
sg1268
I1086
sg1269
g1388
sg1271
I15
sg1272
(lp3952
g3871
ag3888
asg1275
g1276
sg1277
(lp3953
g3873
ag3890
asg1280
I1086
sg1281
S'w229'
p3954
sg1283
(lp3955
I00
aI00
asg1285
I1091
sa(dp3956
g1247
S'JJ'
p3957
sg1249
(lp3958
g3862
ag3879
aS'A2'
p3959
aS'AM-MNR'
p3960
aS'A0'
p3961
aS'A0'
p3962
aS'AM-MOD'
p3963
asg1252
g1253
sg1254
(lp3964
g3864
ag3881
ag3881
aS'controllers'
p3965
ag3965
aS'contact'
p3966
ag3966
asg1257
I00
sg1258
(dp3967
I0
S'JJ'
p3968
sI1
S'NP'
p3969
sI2
S'S'
sI3
S'SBAR'
p3970
sI4
g3950
sI5
S'S'
sI6
g3921
sI7
S'S'
ssg1262
g3958
sg1263
I7
sg1264
S'clear'
p3971
sg1266
S'clear'
p3972
sg1268
I1093
sg1269
g1270
sg1271
I15
sg1272
(lp3973
g3871
ag3888
ag3888
aS'pr35'
p3974
ag3974
aS'pr36'
p3975
ag3975
asg1275
g1276
sg1277
(lp3976
g3873
ag3890
aS'rl83'
p3977
aS'rl84'
p3978
aS'rl85'
p3979
aS'rl86'
p3980
aS'rl87'
p3981
asg1280
I1093
sg1281
S'w230'
p3982
sg1283
(lp3983
I00
aI00
aI00
aI01
aI00
aI00
aI00
asg1285
I1097
sa(dp3984
g1247
S'NNS'
p3985
sg1249
(lp3986
g3862
ag3879
ag3959
ag3961
ag3962
ag3963
asg1252
g1253
sg1254
(lp3987
g3864
ag3881
ag3881
ag3965
ag3966
ag3966
asg1257
I01
sg1258
(dp3988
I0
S'NNS'
p3989
sI1
g3969
sI2
S'S'
sI3
g3970
sI4
g3950
sI5
S'S'
sI6
g3921
sI7
S'S'
ssg1262
g3986
sg1263
I8
sg1264
S'controller'
p3990
sg1266
g3965
sg1268
I1099
sg1269
g1270
sg1271
I15
sg1272
(lp3991
g3871
ag3888
ag3888
ag3974
ag3975
ag3975
asg1275
g1276
sg1277
(lp3992
g3873
ag3890
ag3977
ag3979
ag3980
ag3981
asg1280
I1099
sg1281
S'w231'
p3993
sg1283
(lp3994
I00
aI00
aI00
aI01
aI01
aI00
asg1285
I1109
sa(dp3995
g1247
S'MD'
p3996
sg1249
(lp3997
g3862
ag3879
ag3959
ag3963
asg1252
g1253
sg1254
(lp3998
g3864
ag3881
ag3881
ag3966
asg1257
I00
sg1258
(dp3999
I0
S'MD'
p4000
sI1
S'VP'
p4001
sI2
S'S'
sI3
g3970
sI4
g3950
sI5
S'S'
sI6
g3921
sI7
S'S'
ssg1262
g3997
sg1263
I9
sg1264
S'can'
p4002
sg1266
S'could'
p4003
sg1268
I1111
sg1269
g1270
sg1271
I15
sg1272
(lp4004
g3871
ag3888
ag3888
ag3975
asg1275
g1276
sg1277
(lp4005
g3873
ag3890
ag3977
ag3981
asg1280
I1111
sg1281
S'w232'
p4006
sg1283
(lp4007
I00
aI00
aI01
aI01
asg1285
I1115
sa(dp4008
g1247
S'RB'
p4009
sg1249
(lp4010
g3862
ag3879
ag3959
ag3963
aS'AM-NEG'
p4011
asg1252
g1253
sg1254
(lp4012
g3864
ag3881
ag3881
ag3966
ag3966
asg1257
I00
sg1258
(dp4013
I0
S'RB'
p4014
sI1
g4001
sI2
S'S'
sI3
g3970
sI4
g3950
sI5
S'S'
sI6
g3921
sI7
S'S'
ssg1262
g4010
sg1263
I10
sg1264
S'not'
p4015
sg1266
S'not'
p4016
sg1268
I1117
sg1269
g1270
sg1271
I15
sg1272
(lp4017
g3871
ag3888
ag3888
ag3975
ag3975
asg1275
g1276
sg1277
(lp4018
g3873
ag3890
ag3977
ag3981
aS'rl88'
p4019
asg1280
I1117
sg1281
S'w233'
p4020
sg1283
(lp4021
I00
aI00
aI00
aI00
aI01
asg1285
I1119
sa(dp4022
g1247
S'VB'
p4023
sg1249
(lp4024
g3862
ag3879
ag3959
ag3963
asg1252
g1253
sg1254
(lp4025
g3864
ag3881
ag3881
ag3966
asg1257
I01
sg1258
(dp4026
I0
S'VB'
p4027
sI1
S'VP'
p4028
sI2
g4001
sI3
S'S'
sI4
g3970
sI5
g3950
sI6
S'S'
sI7
g3921
sI8
S'S'
ssg1262
g4024
sg1263
I11
sg1264
S'contact'
p4029
sg1266
g3966
sg1268
I1121
sg1269
g1270
sg1271
I15
sg1272
(lp4030
g3871
ag3888
ag3888
ag3975
asg1275
g1276
sg1277
(lp4031
g3873
ag3890
ag3977
ag3981
asg1280
I1121
sg1281
S'w234'
p4032
sg1283
(lp4033
I00
aI00
aI00
aI00
asg1285
I1127
sa(dp4034
g1247
S'DT'
p4035
sg1249
(lp4036
g3862
ag3879
ag3959
ag3963
aS'A1'
p4037
asg1252
g1253
sg1254
(lp4038
g3864
ag3881
ag3881
ag3966
ag3966
asg1257
I00
sg1258
(dp4039
I0
S'DT'
p4040
sI1
S'NP'
p4041
sI2
g4028
sI3
g4001
sI4
S'S'
sI5
g3970
sI6
g3950
sI7
S'S'
sI8
g3921
sI9
S'S'
ssg1262
g4036
sg1263
I12
sg1264
S'the'
p4042
sg1266
S'the'
p4043
sg1268
I1129
sg1269
g1270
sg1271
I15
sg1272
(lp4044
g3871
ag3888
ag3888
ag3975
ag3975
asg1275
g1276
sg1277
(lp4045
g3873
ag3890
ag3977
ag3981
aS'rl89'
p4046
asg1280
I1129
sg1281
S'w235'
p4047
sg1283
(lp4048
I00
aI00
aI00
aI00
aI00
asg1285
I1131
sa(dp4049
g1247
S'NN'
p4050
sg1249
(lp4051
g3862
ag3879
ag3959
ag3963
ag4037
asg1252
g1253
sg1254
(lp4052
g3864
ag3881
ag3881
ag3966
ag3966
asg1257
I00
sg1258
(dp4053
I0
S'NN'
p4054
sI1
g4041
sI2
g4028
sI3
g4001
sI4
S'S'
sI5
g3970
sI6
g3950
sI7
S'S'
sI8
g3921
sI9
S'S'
ssg1262
g4051
sg1263
I13
sg1264
S'plane'
p4055
sg1266
S'plane'
p4056
sg1268
I1133
sg1269
g1270
sg1271
I15
sg1272
(lp4057
g3871
ag3888
ag3888
ag3975
ag3975
asg1275
g1276
sg1277
(lp4058
g3873
ag3890
ag3977
ag3981
ag4046
asg1280
I1133
sg1281
S'w236'
p4059
sg1283
(lp4060
I00
aI00
aI00
aI00
aI01
asg1285
I1137
sa(dp4061
g1247
S','
sg1252
g1253
sg1257
I00
sg1258
(dp4062
I0
S','
sI1
S'S'
ssg1263
I14
sg1264
S','
sg1266
S','
sg1268
I1138
sg1269
g1270
sg1271
I15
sg1275
g1276
sg1280
I1138
sg1281
S'w237'
p4063
sg1285
I1138
sa(dp4064
g1247
S'NN'
p4065
sg1249
(lp4066
S'A0'
p4067
asg1252
g1253
sg1254
(lp4068
g3864
asg1257
I00
sg1258
(dp4069
I0
S'NN'
p4070
sI1
S'NP'
p4071
sI2
S'S'
ssg1262
g4066
sg1263
I15
sg1264
S'someone'
p4072
sg1266
S'someone'
p4073
sg1268
I1140
sg1269
g1270
sg1271
I15
sg1272
(lp4074
g3871
asg1275
g1276
sg1277
(lp4075
S'rl78'
p4076
asg1280
I1140
sg1281
S'w238'
p4077
sg1283
(lp4078
I01
asg1285
I1146
sa(dp4079
g1247
S'VBD'
p4080
sg1252
g1253
sg1257
I01
sg1258
(dp4081
I0
S'VBD'
p4082
sI1
S'VP'
p4083
sI2
S'S'
ssg1263
I16
sg1264
S'say'
p4084
sg1266
g3864
sg1268
I1148
sg1269
g1388
sg1271
I15
sg1275
g1276
sg1280
I1148
sg1281
S'w239'
p4085
sg1285
I1151
sa(dp4086
g1247
S'DT'
p4087
sg1249
(lp4088
S'A0'
p4089
asg1252
g1253
sg1254
(lp4090
g3864
asg1257
I00
sg1258
(dp4091
I0
S'DT'
p4092
sI1
S'NP'
p4093
sI2
g4083
sI3
S'S'
ssg1262
g4088
sg1263
I17
sg1264
S'a'
sg1266
S'a'
sg1268
I1153
sg1269
g1270
sg1271
I15
sg1272
(lp4094
g3871
asg1275
g1276
sg1277
(lp4095
S'rl79'
p4096
asg1280
I1153
sg1281
S'w240'
p4097
sg1283
(lp4098
I00
asg1285
I1153
sa(dp4099
g1247
S'NN'
p4100
sg1249
(lp4101
g4089
asg1252
g1253
sg1254
(lp4102
g3864
asg1257
I00
sg1258
(dp4103
I0
S'NN'
p4104
sI1
g4093
sI2
g4083
sI3
S'S'
ssg1262
g4101
sg1263
I18
sg1264
S'prayer'
p4105
sg1266
S'prayer'
p4106
sg1268
I1155
sg1269
g1270
sg1271
I15
sg1272
(lp4107
g3871
asg1275
g1276
sg1277
(lp4108
g4096
asg1280
I1155
sg1281
S'w241'
p4109
sg1283
(lp4110
I01
asg1285
I1160
sa(dp4111
g1247
S'.'
sg1252
g1253
sg1257
I00
sg1258
(dp4112
I0
S'.'
sI1
S'S'
ssg1263
I19
sg1264
S'.'
sg1266
S'.'
sg1268
I1161
sg1269
g1270
sg1271
I15
sg1275
g1276
sg1280
I1161
sg1281
S'w242'
p4113
sg1285
I1161
sasI16
(lp4114
(dp4115
g1247
S'NNP'
p4116
sg1249
(lp4117
S'A0'
p4118
asg1289
(lp4119
S'w243'
p4120
asg1252
S'ORG'
p4121
sg1254
(lp4122
S'think'
p4123
asg1268
S'e15'
p4124
sg1258
(dp4125
I0
S'NNP'
p4126
sI1
S'NP'
p4127
sI2
S'S'
ssg1262
g4117
sg1257
I00
sg1263
I0
sg1264
S'TWA'
p4128
sg1266
S'TWA'
p4129
sg1269
g1270
sg1271
I16
sg1272
(lp4130
S'pr37'
p4131
asg1275
g4129
sg1277
(lp4132
S'rl90'
p4133
asg1280
I1164
sg1281
S'w243'
p4134
sg1283
(lp4135
I00
asg1285
I1166
sa(dp4136
g1247
S'CD'
p4137
sg1249
(lp4138
g4118
asg1252
g1253
sg1254
(lp4139
g4123
asg1257
I00
sg1258
(dp4140
I0
S'CD'
p4141
sI1
g4127
sI2
S'S'
ssg1262
g4138
sg1263
I1
sg1264
S'eight'
p4142
sg1266
S'eight'
p4143
sg1268
I1168
sg1269
g1270
sg1271
I16
sg1272
(lp4144
g4131
asg1275
g1276
sg1277
(lp4145
g4133
asg1280
I1168
sg1281
S'w244'
p4146
sg1283
(lp4147
I00
asg1285
I1172
sa(dp4148
g1247
S'CD'
p4149
sg1249
(lp4150
g4118
asg1252
g1253
sg1254
(lp4151
g4123
asg1257
I00
sg1258
(dp4152
I0
S'CD'
p4153
sI1
g4127
sI2
S'S'
ssg1262
g4150
sg1263
I2
sg1264
S'hundred'
p4154
sg1266
S'hundred'
p4155
sg1268
I1174
sg1269
g1270
sg1271
I16
sg1272
(lp4156
g4131
asg1275
g1276
sg1277
(lp4157
g4133
asg1280
I1174
sg1281
S'w245'
p4158
sg1283
(lp4159
I00
asg1285
I1180
sa(dp4160
g1247
S'NN'
p4161
sg1249
(lp4162
g4118
asg1252
g1253
sg1254
(lp4163
g4123
asg1257
I00
sg1258
(dp4164
I0
S'NN'
p4165
sI1
g4127
sI2
S'S'
ssg1262
g4162
sg1263
I3
sg1264
S'center'
p4166
sg1266
S'center'
p4167
sg1268
I1182
sg1269
g1270
sg1271
I16
sg1272
(lp4168
g4131
asg1275
g1276
sg1277
(lp4169
g4133
asg1280
I1182
sg1281
S'w246'
p4170
sg1283
(lp4171
I01
asg1285
I1187
sa(dp4172
g1247
S','
sg1252
g1253
sg1257
I00
sg1258
(dp4173
I0
S','
sI1
S'S'
ssg1263
I4
sg1264
S','
sg1266
S','
sg1268
I1188
sg1269
g1270
sg1271
I16
sg1275
g1276
sg1280
I1188
sg1281
S'w247'
p4174
sg1285
I1188
sa(dp4175
g1247
S'PRP'
p4176
sg1249
(lp4177
S'A0'
p4178
asg1252
g1253
sg1254
(lp4179
g4123
asg1257
I00
sg1258
(dp4180
I0
S'PRP'
p4181
sI1
S'NP'
p4182
sI2
S'S'
ssg1262
g4177
sg1263
I5
sg1264
S'i'
sg1266
S'I'
sg1268
I1190
sg1269
g1270
sg1271
I16
sg1272
(lp4183
g4131
asg1275
g1276
sg1277
(lp4184
S'rl91'
p4185
asg1280
I1190
sg1281
S'w248'
p4186
sg1283
(lp4187
I01
asg1285
I1190
sa(dp4188
g1247
S'VBP'
p4189
sg1252
g1253
sg1257
I01
sg1258
(dp4190
I0
S'VBP'
p4191
sI1
S'VP'
p4192
sI2
S'S'
ssg1263
I6
sg1264
S'think'
p4193
sg1266
g4123
sg1268
I1192
sg1269
g1388
sg1271
I16
sg1275
g1276
sg1280
I1192
sg1281
S'w249'
p4194
sg1285
I1196
sa(dp4195
g1247
S'DT'
p4196
sg1249
(lp4197
S'A1'
p4198
asg1252
g1253
sg1254
(lp4199
g4123
asg1257
I00
sg1258
(dp4200
I0
S'DT'
p4201
sI1
S'NP'
p4202
sI2
S'S'
sI3
S'SBAR'
p4203
sI4
g4192
sI5
S'S'
ssg1262
g4197
sg1263
I7
sg1264
S'that'
p4204
sg1266
S'that'
p4205
sg1268
I1198
sg1269
g1270
sg1271
I16
sg1272
(lp4206
g4131
asg1275
g1276
sg1277
(lp4207
S'rl92'
p4208
asg1280
I1198
sg1281
S'w250'
p4209
sg1283
(lp4210
I00
asg1285
I1201
sa(dp4211
g1247
S'VBD'
p4212
sg1249
(lp4213
g4198
asg1252
g1253
sg1254
(lp4214
g4123
asg1257
I00
sg1258
(dp4215
I0
S'VBD'
p4216
sI1
S'VP'
p4217
sI2
S'S'
sI3
g4203
sI4
g4192
sI5
S'S'
ssg1262
g4213
sg1263
I8
sg1264
S'be'
p4218
sg1266
S'was'
p4219
sg1268
I1203
sg1269
g1388
sg1271
I16
sg1272
(lp4220
g4131
asg1275
g1276
sg1277
(lp4221
g4208
asg1280
I1203
sg1281
S'w251'
p4222
sg1283
(lp4223
I01
asg1285
I1205
sa(dp4224
g1247
S'PRP'
p4225
sg1249
(lp4226
g4198
asg1252
g1253
sg1254
(lp4227
g4123
asg1257
I00
sg1258
(dp4228
I0
S'PRP'
p4229
sI1
S'NP'
p4230
sI2
g4217
sI3
S'S'
sI4
g4203
sI5
g4192
sI6
S'S'
ssg1262
g4226
sg1263
I9
sg1264
S'he'
p4231
sg1266
S'him'
p4232
sg1268
I1207
sg1269
g1270
sg1271
I16
sg1272
(lp4233
g4131
asg1275
g1276
sg1277
(lp4234
g4208
asg1280
I1207
sg1281
S'w252'
p4235
sg1283
(lp4236
I00
asg1285
I1209
sa(dp4237
g1247
S'.'
sg1252
g1253
sg1257
I00
sg1258
(dp4238
I0
S'.'
sI1
S'S'
ssg1263
I10
sg1264
S'.'
sg1266
S'.'
sg1268
I1210
sg1269
g1270
sg1271
I16
sg1275
g1276
sg1280
I1210
sg1281
S'w253'
p4239
sg1285
I1210
sasI17
(lp4240
(dp4241
g1247
S'PRP'
p4242
sg1249
(lp4243
S'A0'
p4244
asg1252
g1253
sg1254
(lp4245
S'think'
p4246
asg1257
I00
sg1258
(dp4247
I0
S'PRP'
p4248
sI1
S'NP'
p4249
sI2
S'S'
ssg1262
g4243
sg1263
I0
sg1264
S'i'
sg1266
S'I'
sg1268
I1213
sg1269
g1270
sg1271
I17
sg1272
(lp4250
S'pr38'
p4251
asg1275
g1276
sg1277
(lp4252
S'rl93'
p4253
asg1280
I1213
sg1281
S'w254'
p4254
sg1283
(lp4255
I01
asg1285
I1213
sa(dp4256
g1247
S'VBP'
p4257
sg1252
g1253
sg1257
I01
sg1258
(dp4258
I0
S'VBP'
p4259
sI1
S'VP'
p4260
sI2
S'S'
ssg1263
I1
sg1264
S'think'
p4261
sg1266
g4246
sg1268
I1215
sg1269
g1388
sg1271
I17
sg1275
g1276
sg1280
I1215
sg1281
S'w255'
p4262
sg1285
I1219
sa(dp4263
g1247
S'RB'
p4264
sg1249
(lp4265
S'A1'
p4266
asg1252
g1253
sg1254
(lp4267
g4246
asg1257
I00
sg1258
(dp4268
I0
S'RB'
p4269
sI1
S'ADVP'
p4270
sI2
g4260
sI3
S'S'
ssg1262
g4265
sg1263
I2
sg1264
S'so'
p4271
sg1266
S'so'
p4272
sg1268
I1221
sg1269
g1270
sg1271
I17
sg1272
(lp4273
g4251
asg1275
g1276
sg1277
(lp4274
S'rl94'
p4275
asg1280
I1221
sg1281
S'w256'
p4276
sg1283
(lp4277
I01
asg1285
I1222
sa(dp4278
g1247
S'.'
sg1252
g1253
sg1257
I00
sg1258
(dp4279
I0
S'.'
sI1
S'S'
ssg1263
I3
sg1264
S'.'
sg1266
S'.'
sg1268
I1223
sg1269
g1270
sg1271
I17
sg1275
g1276
sg1280
I1223
sg1281
S'w257'
p4280
sg1285
I1223
sasI18
(lp4281
(dp4282
g1247
S'NNP'
p4283
sg1249
(lp4284
S'A0'
p4285
asg1289
(lp4286
S'w258'
p4287
asg1252
S'PER'
p4288
sg1254
(lp4289
S'bless'
p4290
asg1268
S'e16'
p4291
sg1258
(dp4292
I0
S'NNP'
p4293
sI1
S'NP'
p4294
sI2
S'S'
ssg1262
g4284
sg1257
I00
sg1263
I0
sg1264
S'God'
p4295
sg1266
S'God'
p4296
sg1269
g1270
sg1271
I18
sg1272
(lp4297
S'pr39'
p4298
asg1275
g4296
sg1277
(lp4299
S'rl95'
p4300
asg1280
I1226
sg1281
S'w258'
p4301
sg1283
(lp4302
I01
asg1285
I1228
sa(dp4303
g1247
S'VBD'
p4304
sg1252
g1253
sg1257
I01
sg1258
(dp4305
I0
S'VB'
p4306
sI1
S'VP'
p4307
sI2
S'S'
ssg1263
I1
sg1264
S'bless'
p4308
sg1266
g4290
sg1268
I1230
sg1269
g1388
sg1271
I18
sg1275
g1276
sg1280
I1230
sg1281
S'w259'
p4309
sg1285
I1234
sa(dp4310
g1247
S'PRP'
p4311
sg1249
(lp4312
S'A1'
p4313
asg1252
g1253
sg1254
(lp4314
g4290
asg1257
I00
sg1258
(dp4315
I0
S'PRP'
p4316
sI1
S'NP'
p4317
sI2
g4307
sI3
S'S'
ssg1262
g4312
sg1263
I2
sg1264
S'he'
p4318
sg1266
S'him'
p4319
sg1268
I1236
sg1269
g1270
sg1271
I18
sg1272
(lp4320
g4298
asg1275
g1276
sg1277
(lp4321
S'rl96'
p4322
asg1280
I1236
sg1281
S'w260'
p4323
sg1283
(lp4324
I01
asg1285
I1238
sa(dp4325
g1247
S'.'
sg1252
g1253
sg1257
I00
sg1258
(dp4326
I0
S'.'
sI1
S'S'
ssg1263
I3
sg1264
S'.'
sg1266
S'.'
sg1268
I1239
sg1269
g1270
sg1271
I18
sg1275
g1276
sg1280
I1239
sg1281
S'w261'
p4327
sg1285
I1239
sasI19
(lp4328
(dp4329
g1247
S'NNP'
p4330
sg1249
(lp4331
S'A0'
p4332
asg1289
(lp4333
S'w262'
p4334
aS'w263'
p4335
asg1252
S'PER'
p4336
sg1254
(lp4337
S'Washington'
p4338
asg1268
S'e17'
p4339
sg1258
(dp4340
I0
S'NNP'
p4341
sI1
S'NP'
p4342
ssg1262
g4331
sg1257
I00
sg1263
I0
sg1264
S'Lisa'
p4343
sg1266
S'Lisa'
p4344
sg1269
g1270
sg1271
I19
sg1272
(lp4345
S'pr40'
p4346
asg1275
S'LisaStark'
p4347
sg1277
(lp4348
S'rl97'
p4349
asg1280
I1242
sg1281
S'w262'
p4350
sg1283
(lp4351
I00
asg1285
I1245
sa(dp4352
g1247
S'NNP'
p4353
sg1249
(lp4354
g4332
asg1289
g4333
sg1252
g4336
sg1254
(lp4355
g4338
asg1268
g4339
sg1258
(dp4356
I0
S'NNP'
p4357
sI1
g4342
ssg1262
g4354
sg1257
I00
sg1263
I1
sg1264
S'Stark'
p4358
sg1266
S'Stark'
p4359
sg1269
g1270
sg1271
I19
sg1272
(lp4360
g4346
asg1275
S'LisaStark'
p4361
sg1277
(lp4362
g4349
asg1280
I1247
sg1281
S'w263'
p4363
sg1283
(lp4364
I00
asg1285
I1251
sa(dp4365
g1247
S'NNP'
p4366
sg1249
(lp4367
g4332
asg1289
(lp4368
S'w264'
p4369
asg1252
S'ORG'
p4370
sg1254
(lp4371
g4338
asg1268
S'e18'
p4372
sg1258
(dp4373
I0
S'NNP'
p4374
sI1
g4342
ssg1262
g4367
sg1257
I00
sg1263
I2
sg1264
S'ABC'
p4375
sg1266
S'ABC'
p4376
sg1269
g1270
sg1271
I19
sg1272
(lp4377
g4346
asg1275
g4376
sg1277
(lp4378
g4349
asg1280
I1253
sg1281
S'w264'
p4379
sg1283
(lp4380
I01
asg1285
I1255
sa(dp4381
g1247
S'NN'
p4382
sg1249
(lp4383
S'A1'
p4384
asg1252
g1253
sg1254
(lp4385
g4338
asg1257
I00
sg1258
(dp4386
I0
S'NN'
p4387
sI1
g4342
ssg1262
g4383
sg1263
I3
sg1264
S'news'
p4388
sg1266
S'news'
p4389
sg1268
I1257
sg1269
g1270
sg1271
I19
sg1272
(lp4390
g4346
asg1275
g1276
sg1277
(lp4391
S'rl98'
p4392
asg1280
I1257
sg1281
S'w265'
p4393
sg1283
(lp4394
I01
asg1285
I1260
sa(dp4395
g1247
S'NNP'
p4396
sg1289
(lp4397
S'w266'
p4398
asg1252
S'LOC'
p4399
sg1268
S'e19'
p4400
sg1258
(dp4401
I0
S'NNP'
p4402
sI1
g4342
ssg1257
I01
sg1263
I4
sg1264
S'Washington'
p4403
sg1266
g4338
sg1269
g1270
sg1271
I19
sg1275
g4338
sg1280
I1262
sg1281
S'w266'
p4404
sg1285
I1271
sassS'id_to_token'
p4405
(dp4406
g2221
g2198
sg2196
g2194
sg2242
g2235
sg2233
g2223
sg2168
g2155
sg2153
g2144
sg2192
g2182
sg2180
g2170
sg2262
g2250
sg2249
g2243
sg4379
g4365
sg4032
g4022
sg3811
g3800
sg3824
g3813
sg3253
g3237
sg3264
g3255
sg3179
g3164
sg3183
g3181
sg3158
g3149
sg3162
g3160
sg3217
g3211
sg3235
g3218
sg3197
g3184
sg3209
g3199
sg4047
g4034
sg4404
g4395
sg3857
g3855
sg2130
g2120
sg2142
g2132
sg4170
g4160
sg2049
g2033
sg2061
g2051
sg2019
g2007
sg2031
g2021
sg2104
g2094
sg2118
g2106
sg2079
g2063
sg2092
g2081
sg3333
g3326
sg3325
g3313
sg3344
g3337
sg3336
g3334
sg3296
g3281
sg3279
g3266
sg3311
g3309
sg3307
g3298
sg3798
g3792
sg3368
g3349
sg3347
g3345
sg3840
g3826
sg3716
g3706
sg3704
g3694
sg3744
g3738
sg3643
g3637
sg3635
g3625
sg3623
g3612
sg3610
g3597
sg3692
g3683
sg3681
g3670
sg3668
g3657
sg3655
g3645
sg4020
g4008
sg4262
g4256
sg1539
g1528
sg1526
g1510
sg1508
g1493
sg1491
g1481
sg1479
g1468
sg1466
g1451
sg1449
g1440
sg1438
g1429
sg1427
g1413
sg1411
g1390
sg1367
g1356
sg1354
g1337
sg1335
g1322
sg1321
g1319
sg1317
g1304
sg1302
g1286
sg1282
g1246
sg2532
g2530
sg2545
g2534
sg2548
g2546
sg1389
g1382
sg1380
g1369
sg4280
g4278
sg3993
g3984
sg3101
g3099
sg3462
g3460
sg3469
g3463
sg2501
g2486
sg4097
g4086
sg4006
g3995
sg3372
g3370
sg3388
g3373
sg3403
g3390
sg3411
g3405
sg3419
g3412
sg3433
g3420
sg3446
g3435
sg3458
g3448
sg4254
g4241
sg4209
g4195
sg4276
g4263
sg2600
g2588
sg2587
g2581
sg2579
g2566
sg2564
g2549
sg2653
g2642
sg2640
g2629
sg2627
g2614
sg2612
g2602
sg3954
g3944
sg3942
g3929
sg2679
g2668
sg2666
g2655
sg4222
g4211
sg2411
g2401
sg2399
g2389
sg2387
g2374
sg2373
g2367
sg2366
g2360
sg2359
g2352
sg2351
g2345
sg2343
g2341
sg4301
g4282
sg4239
g4237
sg3874
g3859
sg2431
g2421
sg2419
g2413
sg3724
g3718
sg3595
g3589
sg3587
g3576
sg3736
g3726
sg3520
g3507
sg3506
g3500
sg3498
g3485
sg3483
g3470
sg3574
g3561
sg3559
g3546
sg3544
g3534
sg3532
g3522
sg3756
g3746
sg3927
g3913
sg3764
g3758
sg3911
g3905
sg3777
g3766
sg3891
g3876
sg3790
g3779
sg2787
g2785
sg2804
g2789
sg2770
g2759
sg2783
g2772
sg2743
g2733
sg2757
g2745
sg2719
g2709
sg2731
g2721
sg2692
g2681
sg2707
g2694
sg2308
g2301
sg2315
g2309
sg2322
g2316
sg2325
g2323
sg2269
g2264
sg2276
g2270
sg2284
g2277
sg2299
g2285
sg2333
g2326
sg2340
g2334
sg2939
g2933
sg2931
g2922
sg2827
g2821
sg2819
g2806
sg2845
g2843
sg2841
g2828
sg2882
g2873
sg2871
g2847
sg2920
g2899
sg2897
g2884
sg4174
g4172
sg2442
g2433
sg4158
g4148
sg4146
g4136
sg4134
g4115
sg4113
g4111
sg4109
g4099
sg2457
g2444
sg3853
g3842
sg2468
g2459
sg4194
g4188
sg4186
g4175
sg1669
g1654
sg1652
g1636
sg1689
g1683
sg1681
g1671
sg1699
g1693
sg1692
g1690
sg1726
g1715
sg1713
g1700
sg1753
g1740
sg1738
g1728
sg4077
g4064
sg2513
g2503
sg1915
g1902
sg1901
g1896
sg1894
g1878
sg1877
g1870
sg1977
g1967
sg1965
g1949
sg1947
g1931
sg1929
g1917
sg4327
g4325
sg2005
g1991
sg1989
g1979
sg4323
g4310
sg4363
g4352
sg4350
g4329
sg2484
g2470
sg4235
g4224
sg3042
g3035
sg3045
g3043
sg3010
g3000
sg3014
g3012
sg3027
g3016
sg3034
g3028
sg2953
g2940
sg2965
g2955
sg2984
g2967
sg2998
g2986
sg1611
g1604
sg1620
g1612
sg1594
g1592
sg1603
g1596
sg1575
g1565
sg1590
g1577
sg1551
g1541
sg1563
g1553
sg4085
g4079
sg1627
g1621
sg1635
g1628
sg1765
g1755
sg1769
g1767
sg1791
g1771
sg1803
g1793
sg1821
g1805
sg1834
g1823
sg1842
g1836
sg1856
g1843
sg1860
g1858
sg1869
g1862
sg4309
g4303
sg4059
g4049
sg3903
g3893
sg3147
g3130
sg3129
g3122
sg3121
g3114
sg3112
g3110
sg3109
g3102
sg2528
g2515
sg3097
g3082
sg3081
g3075
sg3073
g3054
sg3053
g3046
sg4393
g4381
sg4063
g4061
sg3982
g3956
ssS'debug'
p4407
I00
sS'tlinks'
p4408
(lp4409
(dp4410
S'src_id'
p4411
S'e1'
p4412
sS'target_entity'
p4413
(lp4414
g1565
asS'target_id'
p4415
S'e2'
p4416
sS'rel_type'
p4417
S'AFTER'
p4418
sS'src_entity'
p4419
(lp4420
g1382
asS'tlink_id'
p4421
S'l5'
p4422
sa(dp4423
g4411
g4412
sg4413
(lp4424
g1304
asg4415
S't53'
p4425
sg4417
S'None'
p4426
sg4419
g4420
sg4421
Nsa(dp4427
g4411
g4412
sg4413
(lp4428
(dp4429
S'tid'
p4430
S't0'
p4431
sS'functionInDocument'
p4432
S'CREATION_TIME'
p4433
sS'type'
p4434
S'DATE'
p4435
sS'temporalFunction'
p4436
S'false'
p4437
sS'value'
p4438
S'1998-01-14'
p4439
sasg4415
g4431
sg4417
g4426
sg4419
g4420
sg4421
Nsa(dp4440
g4411
g4416
sg4413
g4424
sg4415
g4425
sg4417
g4426
sg4419
g4414
sg4421
Nsa(dp4441
g4411
g4416
sg4413
g4428
sg4415
g4431
sg4417
g4426
sg4419
g4414
sg4421
Nsa(dp4442
g4411
g4412
sg4413
(lp4443
g1683
asg4415
S'e3'
p4444
sg4417
g4426
sg4419
g4420
sg4421
Nsa(dp4445
g4411
g4416
sg4413
g4443
sg4415
g4444
sg4417
g4426
sg4419
g4414
sg4421
Nsa(dp4446
g4411
g4444
sg4413
g4428
sg4415
g4431
sg4417
g4426
sg4419
g4443
sg4421
Nsa(dp4447
g4411
S'e10'
p4448
sg4413
(lp4449
g2144
asg4415
S'e13'
p4450
sg4417
g4426
sg4419
(lp4451
g1979
asg4421
Nsa(dp4452
g4411
g4448
sg4413
g4428
sg4415
g4431
sg4417
g4426
sg4419
g4451
sg4421
Nsa(dp4453
g4411
g4450
sg4413
g4428
sg4415
g4431
sg4417
g4426
sg4419
g4449
sg4421
Nsa(dp4454
g4411
g4448
sg4413
(lp4455
g2277
asg4415
S'e15'
p4456
sg4417
g4426
sg4419
g4451
sg4421
Nsa(dp4457
g4411
g4450
sg4413
g4455
sg4415
g4456
sg4417
g4426
sg4419
g4449
sg4421
Nsa(dp4458
g4411
g4456
sg4413
g4428
sg4415
g4431
sg4417
g4426
sg4419
g4455
sg4421
Nsa(dp4459
g4411
g4456
sg4413
(lp4460
g2503
asg4415
S'e18'
p4461
sg4417
g4426
sg4419
g4455
sg4421
Nsa(dp4462
g4411
g4461
sg4413
(lp4463
g2352
ag2360
ag2367
ag2374
ag2389
asg4415
S't58'
p4464
sg4417
S'ENDED_BY'
p4465
sg4419
g4460
sg4421
S'l21'
p4466
sa(dp4467
g4411
g4461
sg4413
g4428
sg4415
g4431
sg4417
g4426
sg4419
g4460
sg4421
Nsa(dp4468
g4411
g4461
sg4413
(lp4469
g2581
asg4415
S'e19'
p4470
sg4417
g4426
sg4419
g4460
sg4421
Nsa(dp4471
g4411
g4470
sg4413
(lp4472
g2602
asg4415
S'e20'
p4473
sg4417
g4426
sg4419
g4469
sg4421
Nsa(dp4474
g4411
g4470
sg4413
g4428
sg4415
g4431
sg4417
g4426
sg4419
g4469
sg4421
Nsa(dp4475
g4411
g4473
sg4413
g4428
sg4415
g4431
sg4417
g4426
sg4419
g4472
sg4421
Nsa(dp4476
g4411
g4470
sg4413
(lp4477
g2821
asg4415
S'e21'
p4478
sg4417
g4426
sg4419
g4469
sg4421
Nsa(dp4479
g4411
g4478
sg4413
g4428
sg4415
g4431
sg4417
g4426
sg4419
g4477
sg4421
Nsa(dp4480
g4411
g4478
sg4413
(lp4481
g2933
asg4415
S'e22'
p4482
sg4417
g4426
sg4419
g4477
sg4421
Nsa(dp4483
g4411
g4478
sg4413
(lp4484
g2955
asg4415
S'e24'
p4485
sg4417
g4426
sg4419
g4477
sg4421
Nsa(dp4486
g4411
g4482
sg4413
g4484
sg4415
g4485
sg4417
g4426
sg4419
g4481
sg4421
Nsa(dp4487
g4411
g4482
sg4413
g4428
sg4415
g4431
sg4417
g4426
sg4419
g4481
sg4421
Nsa(dp4488
g4411
g4485
sg4413
g4428
sg4415
g4431
sg4417
g4426
sg4419
g4484
sg4421
Nsa(dp4489
g4411
g4482
sg4413
(lp4490
g3075
asg4415
S'e26'
p4491
sg4417
g4426
sg4419
g4481
sg4421
Nsa(dp4492
g4411
g4485
sg4413
g4490
sg4415
g4491
sg4417
g4426
sg4419
g4484
sg4421
Nsa(dp4493
g4411
g4491
sg4413
(lp4494
g3102
asg4415
S'e60'
p4495
sg4417
g4426
sg4419
g4490
sg4421
Nsa(dp4496
g4411
g4491
sg4413
g4428
sg4415
g4431
sg4417
g4426
sg4419
g4490
sg4421
Nsa(dp4497
g4411
g4495
sg4413
g4428
sg4415
g4431
sg4417
g4426
sg4419
g4494
sg4421
Nsa(dp4498
g4411
g4491
sg4413
(lp4499
g3149
asg4415
S'e61'
p4500
sg4417
g4426
sg4419
g4490
sg4421
Nsa(dp4501
g4411
g4500
sg4413
g4428
sg4415
g4431
sg4417
g4426
sg4419
g4499
sg4421
Nsa(dp4502
g4411
g4500
sg4413
(lp4503
g3211
asg4415
S'e28'
p4504
sg4417
g4426
sg4419
g4499
sg4421
Nsa(dp4505
g4411
g4504
sg4413
g4428
sg4415
g4431
sg4417
g4426
sg4419
g4503
sg4421
Nsa(dp4506
g4411
S'e30'
p4507
sg4413
(lp4508
g3500
asg4415
S'e33'
p4509
sg4417
S'BEFORE'
p4510
sg4419
(lp4511
g3405
asg4421
S'l18'
p4512
sa(dp4513
g4411
g4507
sg4413
(lp4514
g3534
asg4415
S'e34'
p4515
sg4417
g4426
sg4419
g4511
sg4421
Nsa(dp4516
g4411
g4507
sg4413
(lp4517
g3800
asg4415
S'e36'
p4518
sg4417
g4426
sg4419
g4511
sg4421
Nsa(dp4519
g4411
g4507
sg4413
g4428
sg4415
g4431
sg4417
g4426
sg4419
g4511
sg4421
Nsa(dp4520
g4411
g4509
sg4413
g4514
sg4415
g4515
sg4417
g4426
sg4419
g4508
sg4421
Nsa(dp4521
g4411
g4509
sg4413
g4517
sg4415
g4518
sg4417
g4426
sg4419
g4508
sg4421
Nsa(dp4522
g4411
g4509
sg4413
g4428
sg4415
g4431
sg4417
g4426
sg4419
g4508
sg4421
Nsa(dp4523
g4411
g4515
sg4413
g4517
sg4415
g4518
sg4417
g4426
sg4419
g4514
sg4421
Nsa(dp4524
g4411
g4515
sg4413
g4428
sg4415
g4431
sg4417
g4426
sg4419
g4514
sg4421
Nsa(dp4525
g4411
g4518
sg4413
g4428
sg4415
g4431
sg4417
g4426
sg4419
g4517
sg4421
Nsa(dp4526
g4411
g4507
sg4413
(lp4527
g3944
asg4415
S'e38'
p4528
sg4417
g4426
sg4419
g4511
sg4421
Nsa(dp4529
g4411
g4507
sg4413
(lp4530
g4022
asg4415
S'e235'
p4531
sg4417
g4426
sg4419
g4511
sg4421
Nsa(dp4532
g4411
g4507
sg4413
(lp4533
g4079
asg4415
S'e43'
p4534
sg4417
g4426
sg4419
g4511
sg4421
Nsa(dp4535
g4411
g4509
sg4413
g4527
sg4415
g4528
sg4417
g4426
sg4419
g4508
sg4421
Nsa(dp4536
g4411
g4509
sg4413
g4530
sg4415
g4531
sg4417
g4426
sg4419
g4508
sg4421
Nsa(dp4537
g4411
g4509
sg4413
g4533
sg4415
g4534
sg4417
g4426
sg4419
g4508
sg4421
Nsa(dp4538
g4411
g4515
sg4413
g4527
sg4415
g4528
sg4417
g4426
sg4419
g4514
sg4421
Nsa(dp4539
g4411
g4515
sg4413
g4530
sg4415
g4531
sg4417
g4426
sg4419
g4514
sg4421
Nsa(dp4540
g4411
g4515
sg4413
g4533
sg4415
g4534
sg4417
g4426
sg4419
g4514
sg4421
Nsa(dp4541
g4411
g4518
sg4413
g4527
sg4415
g4528
sg4417
g4426
sg4419
g4517
sg4421
Nsa(dp4542
g4411
g4518
sg4413
g4530
sg4415
g4531
sg4417
g4426
sg4419
g4517
sg4421
Nsa(dp4543
g4411
g4518
sg4413
g4533
sg4415
g4534
sg4417
g4426
sg4419
g4517
sg4421
Nsa(dp4544
g4411
g4528
sg4413
g4530
sg4415
g4531
sg4417
g4426
sg4419
g4527
sg4421
Nsa(dp4545
g4411
g4528
sg4413
g4533
sg4415
g4534
sg4417
g4426
sg4419
g4527
sg4421
Nsa(dp4546
g4411
g4528
sg4413
g4428
sg4415
g4431
sg4417
g4426
sg4419
g4527
sg4421
Nsa(dp4547
g4411
g4531
sg4413
g4533
sg4415
g4534
sg4417
S'BEFORE'
p4548
sg4419
g4530
sg4421
S'l28'
p4549
sa(dp4550
g4411
g4531
sg4413
g4428
sg4415
g4431
sg4417
g4426
sg4419
g4530
sg4421
Nsa(dp4551
g4411
g4534
sg4413
g4428
sg4415
g4431
sg4417
g4426
sg4419
g4533
sg4421
NsasS'token_to_offset'
p4552
(dp4553
g2575
(lp4554
(I575
I578
tp4555
a(I672
I675
tp4556
a(I910
I913
tp4557
asg3923
(lp4558
(I1078
I1081
tp4559
asg3355
(lp4560
(I965
I966
tp4561
asg3332
(lp4562
(I893
I895
tp4563
asg1883
(lp4564
(I267
I270
tp4565
asS','
(lp4566
(I19
I19
tp4567
a(I192
I192
tp4568
a(I526
I526
tp4569
a(I570
I570
tp4570
a(I773
I773
tp4571
a(I793
I793
tp4572
a(I830
I830
tp4573
a(I896
I896
tp4574
a(I933
I933
tp4575
a(I979
I979
tp4576
a(I993
I993
tp4577
a(I1020
I1020
tp4578
a(I1024
I1024
tp4579
a(I1031
I1031
tp4580
a(I1040
I1040
tp4581
a(I1076
I1076
tp4582
a(I1138
I1138
tp4583
a(I1188
I1188
tp4584
asg2949
(lp4585
(I727
I728
tp4586
a(I973
I974
tp4587
a(I981
I982
tp4588
asg1779
(lp4589
(I243
I245
tp4590
asg3479
(lp4591
(I939
I942
tp4592
asg4073
(lp4593
(I1140
I1146
tp4594
asg3701
(lp4595
(I1011
I1013
tp4596
asg1723
(lp4597
(I202
I207
tp4598
asg2177
(lp4599
(I393
I396
tp4600
a(I458
I461
tp4601
asg2396
(lp4602
(I516
I519
tp4603
asg4016
(lp4604
(I1117
I1119
tp4605
asg1926
(lp4606
(I275
I281
tp4607
asg2704
(lp4608
(I623
I629
tp4609
asg4232
(lp4610
(I1207
I1209
tp4611
a(I1236
I1238
tp4612
asg2365
(lp4613
(I503
I508
tp4614
asg2728
(lp4615
(I640
I643
tp4616
asg2767
(lp4617
(I658
I661
tp4618
asg1299
(lp4619
(I3
I12
tp4620
a(I1262
I1271
tp4621
asg2016
(lp4622
(I316
I326
tp4623
a(I1099
I1109
tp4624
asg2075
(lp4625
(I342
I347
tp4626
asg3713
(lp4627
(I1015
I1019
tp4628
asg1498
(lp4629
(I136
I139
tp4630
a(I677
I680
tp4631
asg2258
(lp4632
(I429
I433
tp4633
asg3378
(lp4634
(I915
I918
tp4635
asg2088
(lp4636
(I349
I354
tp4637
asg1786
(lp4638
(I226
I228
tp4639
a(I1253
I1255
tp4640
asg4290
(lp4641
(I1230
I1234
tp4642
asg3864
(lp4643
(I1148
I1151
tp4644
asg3275
(lp4645
(I871
I873
tp4646
asg3249
(lp4647
(I856
I863
tp4648
asg2000
(lp4649
(I308
I314
tp4650
asg1363
(lp4651
(I33
I40
tp4652
asg2559
(lp4653
(I572
I573
tp4654
a(I944
I945
tp4655
asg2609
(lp4656
(I587
I595
tp4657
asg1488
(lp4658
(I101
I105
tp4659
asg2676
(lp4660
(I612
I615
tp4661
asg3632
(lp4662
(I988
I992
tp4663
asg3136
(lp4664
(I815
I822
tp4665
asg4389
(lp4666
(I1257
I1260
tp4667
asg1634
(lp4668
(I167
I168
tp4669
asg2689
(lp4670
(I617
I621
tp4671
asg3529
(lp4672
(I955
I963
tp4673
asg1974
(lp4674
(I290
I293
tp4675
asg2637
(lp4676
(I600
I604
tp4677
asg1911
(lp4678
(I272
I273
tp4679
a(I606
I607
tp4680
asg4003
(lp4681
(I1111
I1115
tp4682
asg2855
(lp4683
(I721
I725
tp4684
asg1986
(lp4685
(I295
I306
tp4686
asg3881
(lp4687
(I1086
I1091
tp4688
asg3753
(lp4689
(I1026
I1030
tp4690
asg2139
(lp4691
(I374
I378
tp4692
a(I435
I439
tp4693
asg2740
(lp4694
(I645
I646
tp4695
asg2479
(lp4696
(I543
I548
tp4697
asg2028
(lp4698
(I328
I330
tp4699
a(I441
I443
tp4700
a(I510
I512
tp4701
a(I935
I937
tp4702
a(I995
I997
tp4703
asg3900
(lp4704
(I1071
I1075
tp4705
asg1602
(lp4706
(I147
I151
tp4707
a(I254
I258
tp4708
a(I803
I807
tp4709
asg1376
(lp4710
(I42
I55
tp4711
asg1830
(lp4712
(I237
I241
tp4713
a(I1247
I1251
tp4714
asg2164
(lp4715
(I389
I391
tp4716
a(I454
I456
tp4717
a(I1067
I1069
tp4718
asg1586
(lp4719
(I141
I144
tp4720
a(I682
I685
tp4721
a(I968
I971
tp4722
asg1641
(lp4723
(I209
I212
tp4724
asg1461
(lp4725
(I92
I95
tp4726
a(I536
I539
tp4727
a(I1033
I1036
tp4728
a(I1052
I1055
tp4729
asg2856
(lp4730
(I730
I734
tp4731
asg3169
(lp4732
(I847
I850
tp4733
asg3665
(lp4734
(I999
I1003
tp4735
asg2332
(lp4736
(I480
I484
tp4737
asg2350
(lp4738
(I497
I499
tp4739
asS'.'
(lp4740
(I145
I145
tp4741
a(I224
I224
tp4742
a(I251
I251
tp4743
a(I406
I406
tp4744
a(I494
I494
tp4745
a(I565
I565
tp4746
a(I667
I667
tp4747
a(I686
I686
tp4748
a(I753
I753
tp4749
a(I800
I800
tp4750
a(I823
I823
tp4751
a(I887
I887
tp4752
a(I901
I901
tp4753
a(I1061
I1061
tp4754
a(I1161
I1161
tp4755
a(I1210
I1210
tp4756
a(I1223
I1223
tp4757
a(I1239
I1239
tp4758
asg4296
(lp4759
(I1226
I1228
tp4760
asg1560
(lp4761
(I128
I134
tp4762
a(I366
I372
tp4763
a(I421
I427
tp4764
a(I746
I752
tp4765
a(I766
I772
tp4766
a(I1174
I1180
tp4767
asg1876
(lp4768
(I260
I262
tp4769
a(I1005
I1007
tp4770
a(I1203
I1205
tp4771
asg1313
(lp4772
(I14
I18
tp4773
asg1852
(lp4774
(I247
I250
tp4775
a(I875
I878
tp4776
asg2492
(lp4777
(I550
I555
tp4778
asg2780
(lp4779
(I663
I666
tp4780
a(I1057
I1060
tp4781
a(I1198
I1201
tp4782
asg1659
(lp4783
(I184
I191
tp4784
asg2189
(lp4785
(I398
I405
tp4786
a(I463
I470
tp4787
a(I486
I493
tp4788
a(I631
I638
tp4789
asg1698
(lp4790
(I194
I196
tp4791
asg1256
(lp4792
(I57
I64
tp4793
asg2854
(lp4794
(I693
I702
tp4795
a(I836
I845
tp4796
asg3060
(lp4797
(I782
I785
tp4798
asg2058
(lp4799
(I336
I340
tp4800
a(I530
I534
tp4801
a(I865
I869
tp4802
asg3108
(lp4803
(I795
I799
tp4804
asg1398
(lp4805
(I86
I90
tp4806
asg2623
(lp4807
(I597
I598
tp4808
a(I920
I921
tp4809
a(I1049
I1050
tp4810
asg2663
(lp4811
(I609
I610
tp4812
asg1403
(lp4813
(I66
I68
tp4814
a(I930
I932
tp4815
asg2914
(lp4816
(I707
I712
tp4817
asg2893
(lp4818
(I704
I705
tp4819
asg1397
(lp4820
(I78
I84
tp4821
asg1522
(lp4822
(I111
I113
tp4823
a(I332
I334
tp4824
a(I356
I358
tp4825
a(I409
I411
tp4826
a(I736
I738
tp4827
a(I756
I758
tp4828
a(I1164
I1166
tp4829
asg1350
(lp4830
(I25
I31
tp4831
asg3733
(lp4832
(I1022
I1023
tp4833
a(I1038
I1039
tp4834
asg3128
(lp4835
(I809
I810
tp4836
asg4106
(lp4837
(I1155
I1160
tp4838
asg3938
(lp4839
(I1083
I1084
tp4840
asg2596
(lp4841
(I584
I585
tp4842
asg2754
(lp4843
(I648
I656
tp4844
asg1941
(lp4845
(I283
I284
tp4846
a(I563
I564
tp4847
a(I923
I924
tp4848
asg2554
(lp4849
(I580
I582
tp4850
a(I947
I949
tp4851
asg3052
(lp4852
(I775
I776
tp4853
asg3343
(lp4854
(I898
I900
tp4855
asg1535
(lp4856
(I115
I120
tp4857
asg1889
(lp4858
(I264
I265
tp4859
a(I812
I813
tp4860
asS'-'
(lp4861
(I478
I478
tp4862
a(I905
I905
tp4863
asg3966
(lp4864
(I1121
I1127
tp4865
asg3286
(lp4866
(I880
I886
tp4867
asg1626
(lp4868
(I163
I165
tp4869
asg1709
(lp4870
(I198
I200
tp4871
a(I778
I780
tp4872
asg2321
(lp4873
(I472
I477
tp4874
asg1610
(lp4875
(I152
I153
tp4876
a(I229
I230
tp4877
a(I412
I413
tp4878
asS'I'
(lp4879
(I1190
I1190
tp4880
a(I1213
I1213
tp4881
asg3174
(lp4882
(I825
I829
tp4883
asg1762
(lp4884
(I218
I223
tp4885
asg1678
(lp4886
(I178
I182
tp4887
a(I1133
I1137
tp4888
asg1548
(lp4889
(I122
I126
tp4890
a(I360
I364
tp4891
a(I415
I419
tp4892
a(I740
I744
tp4893
a(I760
I764
tp4894
a(I1168
I1172
tp4895
asg3516
(lp4896
(I951
I953
tp4897
asg3808
(lp4898
(I1042
I1047
tp4899
asg1619
(lp4900
(I155
I161
tp4901
asg1817
(lp4902
(I232
I235
tp4903
a(I1242
I1245
tp4904
asg2862
(lp4905
(I689
I691
tp4906
asg1647
(lp4907
(I170
I172
tp4908
asS'a'
(lp4909
(I501
I501
tp4910
a(I514
I514
tp4911
a(I528
I528
tp4912
a(I541
I541
tp4913
a(I1009
I1009
tp4914
a(I1153
I1153
tp4915
asg2908
(lp4916
(I714
I719
tp4917
a(I787
I792
tp4918
a(I1182
I1187
tp4919
asg2475
(lp4920
(I557
I561
tp4921
asg2544
(lp4922
(I568
I569
tp4923
a(I890
I891
tp4924
asg3972
(lp4925
(I1093
I1097
tp4926
asg2408
(lp4927
(I521
I525
tp4928
asg2799
(lp4929
(I669
I670
tp4930
a(I903
I904
tp4931
a(I907
I908
tp4932
asg4123
(lp4933
(I1192
I1196
tp4934
a(I1215
I1219
tp4935
asg1954
(lp4936
(I380
I387
tp4937
a(I445
I452
tp4938
asg4272
(lp4939
(I1221
I1222
tp4940
asg3869
(lp4941
(I1064
I1065
tp4942
asg1267
(lp4943
(I0
I1
tp4944
asg1422
(lp4945
(I70
I76
tp4946
asg1331
(lp4947
(I21
I23
tp4948
a(I97
I99
tp4949
a(I107
I109
tp4950
a(I174
I176
tp4951
a(I214
I216
tp4952
a(I286
I288
tp4953
a(I832
I834
tp4954
a(I852
I854
tp4955
a(I926
I928
tp4956
a(I976
I978
tp4957
a(I984
I986
tp4958
a(I1129
I1131
tp4959
assS'sentence_features'
p4960
(dp4961
I1
(dp4962
S'constituency_tree'
p4963
S'(S (PP (IN In))(NP (NNP Washington))))(NP (NN today)))(, ,))(NP (DT the))(NNP Federal))(NNP Aviation))(NNP Administration)))(VP (VBD released))(NP (NN air))(NN traffic))(NN control))(NNS tapes)))(PP (IN from))(NP (DT the))(NN night))))(S (NP (DT the))(NNP TWA))(NNP Flight))(CD eight))(CD hundred)))(VP (VBD went))(ADVP (RB down))))))(. .)))'
p4964
ssI2
(dp4965
g4963
S"(S (S (NP (EX There)))(VP (VBZ 's))(NP (NP (NN nothing))(JJ new)))(PP (IN on))(SBAR (WHADVP (WRB why)))(S (NP (DT the))(NN plane)))(VP (VBD exploded)))))))))(, ,))(CC but))(S (NP (PRP you)))(VP (MD cannot))(VP (VB miss))(NP (DT the))(NN moment))))))(. .)))"
p4966
ssI3
(dp4967
g4963
S"(S (NP (NP (NNP ABC))(POS 's)))(NNP Lisa))(NNP Stark)))(VP (VBZ has))(NP (JJR more))))(. .)))"
p4968
ssI4
(dp4969
g4963
S'(S (NP (EX There)))(VP (VBD was))(NP (NP (DT no))(NN hint)))(PP (IN of))(NP (NP (NN trouble)))(PP (IN in))(NP (NP (DT the))(JJ last))(NN conversation)))(PP (IN between))(NP (NP (NNS controllers)))(CC and))(NP (NP (NNP TWA))(NN pilot))(NNP Steven))(NNP Snyder))(NNP TWA))(CD eight))(CD hundred))(NN climb))(NN maintain)))(NP (CD one))(CD five))(CD thousand))))))))))))(. .)))'
p4970
ssI5
(dp4971
g4963
S"(NP (NP (NP (NP (NP (NNP TWA))(POS 's)))(QP (CD eight))(CD hundred)))(JJ heavy))(NN climb)))(CC and))(NP (NN maintain))))(PP (IN one))(NP (CD five))(CD thousand))(VBG leavin)))))(: -))(NP (CD three))(CD thousand)))(. .)))"
p4972
ssI6
(dp4973
g4963
S'(S (CC But))(ADVP (NP (NP (DT a))(NN minute)))(CC and))(NP (DT a))(NN half))))(RB later)))(, ,))(NP (NP (DT a))(NN pilot)))(PP (IN from))(NP (DT a))(JJ nearby))(NN flight)))))(VP (VBZ calls))(PRT (RP in))))(. .)))'
p4974
ssI7
(dp4975
g4963
S'(S (INTJ (UH Ah)))(, ,))(NP (PRP we)))(ADVP (RB just)))(VP (VBD saw))(NP (DT an))(NN explosion)))(PRT (RP up)))(ADVP (RB ahead))(PP (IN of))(NP (PRP us)))))(ADVP (RB here)))(PP (IN about))(NP (NP (QP (CD sixteen))(CD thousand)))(NNS feet)))(CC or))(NP (NP (NN something)))(PP (IN like))(NP (DT that))))))))(. .)))'
p4976
ssI8
(dp4977
g4963
S'(S (NP (PRP It)))(ADVP (RB just)))(VP (VBD went))(ADVP (RB down))))(. .)))'
p4978
ssI9
(dp4979
g4963
S'(S (NP (NP (DT The))(NN controller)))(PP (IN at))(NP (NNP Boston))(NN center)))))(VP (VBZ tries))(S (VP (TO to))(VP (VB raise))(NP (NNP TWA))(CD eight))(CD hundred)))))))(. .)))'
p4980
ssI10
(dp4981
g4963
S'(S (NP (NNP TWA))(CD eight)))(VP (VBD hundred))(, ,))(SBAR (IN if))(S (NP (PRP you)))(VP (VBP hear))(NP (NP (NN center)))(, ,))(NP (NN ident))))))))(. .)))'
p4982
ssI11
(dp4983
g4963
S'(S (NP (EX There)))(VP (VBZ is))(NP (DT no))(NN response))))(. .)))'
p4984
ssI12
(dp4985
g4963
S'(S (ADVP (RB Later)))(, ,))(NP (DT the))(NN controller)))(VP (VBZ asks))(NP (DT the))(NNP Eastwind))(NN pilot)))(PP (IN for))(NP (JJR more))(NNS details)))))(. .)))'
p4986
ssI13
(dp4987
g4963
S'(FRAG (INTJ (UH Ah)))(INTJ (UH yes)))(, ,))(NP (NN sir)))(. .)))'
p4988
ssI14
(dp4989
g4963
S'(S (S (NP (PRP It)))(: -))(NP (PRP It)))(ADVP (RB just)))(VP (VBD blew))(PRT (RP up)))(PP (IN in))(NP (DT the))(NN air))))))(, ,))(CC and))(S (ADVP (RB then)))(NP (PRP we)))(VP (VBD saw))(S (NP (CD two))(NNS fireballs)))(VP (VBP go))(ADVP (RB down))(PP (TO to))(NP (DT the)))))(, ,))(PP (TO to))(NP (DT the))(NN water))))))))(, ,))(CC and))(S (NP (EX there)))(VP (VBD was))(NP (DT a))(JJ big))(JJ small))(, ,))(UH ah))(, ,))(NN smoke)))(, ,))(PP (IN from))(NP (UH ah))))(, ,))(S (VP (VBG coming))(ADVP (RB up)))(PP (IN from))(NP (DT that))))))))(. .)))'
p4990
ssI15
(dp4991
g4963
S'(S (PP (IN At))(NP (CD one))(NN point))))(, ,))(SBAR (WHADVP (WRB when)))(S (NP (PRP it)))(VP (VBD became))(SBAR (S (NP (JJ clear))(NNS controllers)))(VP (MD could))(RB not))(VP (VB contact))(NP (DT the))(NN plane))))))))))(, ,))(NP (NN someone)))(VP (VBD said))(NP (DT a))(NN prayer))))(. .)))'
p4992
ssI16
(dp4993
g4963
S'(S (NP (NNP TWA))(CD eight))(CD hundred))(NN center)))(, ,))(NP (PRP I)))(VP (VBP think))(SBAR (S (NP (DT that)))(VP (VBD was))(NP (PRP him)))))))(. .)))'
p4994
ssI17
(dp4995
g4963
S'(S (NP (PRP I)))(VP (VBP think))(ADVP (RB so))))(. .)))'
p4996
ssI18
(dp4997
g4963
S'(S (NP (NNP God)))(VP (VB bless))(NP (PRP him))))(. .)))'
p4998
ssI19
(dp4999
g4963
S'(NP (NNP Lisa))(NNP Stark))(NNP ABC))(NN news))(NNP Washington)))'
p5000
sssS'iob_labels'
p5001
(lp5002
(lp5003
(dp5004
S'entity_label'
p5005
S'O'
sS'entity_id'
p5006
NsS'entity_type'
p5007
Nsa(dp5008
g5005
S'O'
sg5006
Nsg5007
Nsa(dp5009
g5005
S'B_DATE'
p5010
sg5006
g4425
sg5007
S'TIMEX3'
p5011
sa(dp5012
g5005
S'O'
sg5006
Nsg5007
Nsa(dp5013
g5005
S'O'
sg5006
Nsg5007
Nsa(dp5014
g5005
S'O'
sg5006
Nsg5007
Nsa(dp5015
g5005
S'O'
sg5006
Nsg5007
Nsa(dp5016
g5005
S'O'
sg5006
Nsg5007
Nsa(dp5017
g5005
S'OCCURRENCE'
p5018
sg5006
g4412
sg5007
S'EVENT'
p5019
sa(dp5020
g5005
S'O'
sg5006
Nsg5007
Nsa(dp5021
g5005
S'O'
sg5006
Nsg5007
Nsa(dp5022
g5005
S'O'
sg5006
Nsg5007
Nsa(dp5023
g5005
S'O'
sg5006
Nsg5007
Nsa(dp5024
g5005
S'O'
sg5006
Nsg5007
Nsa(dp5025
g5005
S'O'
sg5006
Nsg5007
Nsa(dp5026
g5005
S'O'
sg5006
Nsg5007
Nsa(dp5027
g5005
S'O'
sg5006
Nsg5007
Nsa(dp5028
g5005
S'O'
sg5006
Nsg5007
Nsa(dp5029
g5005
S'O'
sg5006
Nsg5007
Nsa(dp5030
g5005
S'O'
sg5006
Nsg5007
Nsa(dp5031
g5005
S'O'
sg5006
Nsg5007
Nsa(dp5032
g5005
S'OCCURRENCE'
p5033
sg5006
g4416
sg5007
g5019
sa(dp5034
g5005
S'O'
sg5006
Nsg5007
Nsa(dp5035
g5005
S'O'
sg5006
Nsg5007
Nsaa(lp5036
(dp5037
g5005
S'O'
sg5006
Nsg5007
Nsa(dp5038
g5005
S'O'
sg5006
Nsg5007
Nsa(dp5039
g5005
S'O'
sg5006
Nsg5007
Nsa(dp5040
g5005
S'O'
sg5006
Nsg5007
Nsa(dp5041
g5005
S'O'
sg5006
Nsg5007
Nsa(dp5042
g5005
S'O'
sg5006
Nsg5007
Nsa(dp5043
g5005
S'O'
sg5006
Nsg5007
Nsa(dp5044
g5005
S'O'
sg5006
Nsg5007
Nsa(dp5045
g5005
S'OCCURRENCE'
p5046
sg5006
g4444
sg5007
g5019
sa(dp5047
g5005
S'O'
sg5006
Nsg5007
Nsa(dp5048
g5005
S'O'
sg5006
Nsg5007
Nsa(dp5049
g5005
S'O'
sg5006
Nsg5007
Nsa(dp5050
g5005
S'O'
sg5006
Nsg5007
Nsa(dp5051
g5005
S'O'
sg5006
Nsg5007
Nsa(dp5052
g5005
S'O'
sg5006
Nsg5007
Nsa(dp5053
g5005
S'O'
sg5006
Nsg5007
Nsa(dp5054
g5005
S'O'
sg5006
Nsg5007
Nsaa(lp5055
(dp5056
g5005
S'O'
sg5006
Nsg5007
Nsa(dp5057
g5005
S'O'
sg5006
Nsg5007
Nsa(dp5058
g5005
S'O'
sg5006
Nsg5007
Nsa(dp5059
g5005
S'O'
sg5006
Nsg5007
Nsa(dp5060
g5005
S'O'
sg5006
Nsg5007
Nsa(dp5061
g5005
S'O'
sg5006
Nsg5007
Nsa(dp5062
g5005
S'O'
sg5006
Nsg5007
Nsaa(lp5063
(dp5064
g5005
S'O'
sg5006
Nsg5007
Nsa(dp5065
g5005
S'O'
sg5006
Nsg5007
Nsa(dp5066
g5005
S'O'
sg5006
Nsg5007
Nsa(dp5067
g5005
S'O'
sg5006
Nsg5007
Nsa(dp5068
g5005
S'O'
sg5006
Nsg5007
Nsa(dp5069
g5005
S'O'
sg5006
Nsg5007
Nsa(dp5070
g5005
S'O'
sg5006
Nsg5007
Nsa(dp5071
g5005
S'O'
sg5006
Nsg5007
Nsa(dp5072
g5005
S'O'
sg5006
Nsg5007
Nsa(dp5073
g5005
S'OCCURRENCE'
p5074
sg5006
g4448
sg5007
g5019
sa(dp5075
g5005
S'O'
sg5006
Nsg5007
Nsa(dp5076
g5005
S'O'
sg5006
Nsg5007
Nsa(dp5077
g5005
S'O'
sg5006
Nsg5007
Nsa(dp5078
g5005
S'O'
sg5006
Nsg5007
Nsa(dp5079
g5005
S'O'
sg5006
Nsg5007
Nsa(dp5080
g5005
S'O'
sg5006
Nsg5007
Nsa(dp5081
g5005
S'O'
sg5006
Nsg5007
Nsa(dp5082
g5005
S'O'
sg5006
Nsg5007
Nsa(dp5083
g5005
S'O'
sg5006
Nsg5007
Nsa(dp5084
g5005
S'O'
sg5006
Nsg5007
Nsa(dp5085
g5005
S'O'
sg5006
Nsg5007
Nsa(dp5086
g5005
S'OCCURRENCE'
p5087
sg5006
g4450
sg5007
g5019
sa(dp5088
g5005
S'O'
sg5006
Nsg5007
Nsa(dp5089
g5005
S'O'
sg5006
Nsg5007
Nsa(dp5090
g5005
S'O'
sg5006
Nsg5007
Nsa(dp5091
g5005
S'O'
sg5006
Nsg5007
Nsaa(lp5092
(dp5093
g5005
S'O'
sg5006
Nsg5007
Nsa(dp5094
g5005
S'O'
sg5006
Nsg5007
Nsa(dp5095
g5005
S'O'
sg5006
Nsg5007
Nsa(dp5096
g5005
S'O'
sg5006
Nsg5007
Nsa(dp5097
g5005
S'O'
sg5006
Nsg5007
Nsa(dp5098
g5005
S'O'
sg5006
Nsg5007
Nsa(dp5099
g5005
S'O'
sg5006
Nsg5007
Nsa(dp5100
g5005
S'OCCURRENCE'
p5101
sg5006
g4456
sg5007
g5019
sa(dp5102
g5005
S'O'
sg5006
Nsg5007
Nsa(dp5103
g5005
S'O'
sg5006
Nsg5007
Nsa(dp5104
g5005
S'O'
sg5006
Nsg5007
Nsa(dp5105
g5005
S'O'
sg5006
Nsg5007
Nsa(dp5106
g5005
S'O'
sg5006
Nsg5007
Nsa(dp5107
g5005
S'O'
sg5006
Nsg5007
Nsa(dp5108
g5005
S'O'
sg5006
Nsg5007
Nsa(dp5109
g5005
S'O'
sg5006
Nsg5007
Nsaa(lp5110
(dp5111
g5005
S'O'
sg5006
Nsg5007
Nsa(dp5112
g5005
S'B_DURATION'
p5113
sg5006
g4464
sg5007
g5011
sa(dp5114
g5005
S'I_DURATION'
p5115
sg5006
g4464
sg5007
g5011
sa(dp5116
g5005
S'I_DURATION'
p5117
sg5006
g4464
sg5007
g5011
sa(dp5118
g5005
S'I_DURATION'
p5119
sg5006
g4464
sg5007
g5011
sa(dp5120
g5005
S'I_DURATION'
p5121
sg5006
g4464
sg5007
g5011
sa(dp5122
g5005
S'O'
sg5006
Nsg5007
Nsa(dp5123
g5005
S'O'
sg5006
Nsg5007
Nsa(dp5124
g5005
S'O'
sg5006
Nsg5007
Nsa(dp5125
g5005
S'O'
sg5006
Nsg5007
Nsa(dp5126
g5005
S'O'
sg5006
Nsg5007
Nsa(dp5127
g5005
S'O'
sg5006
Nsg5007
Nsa(dp5128
g5005
S'O'
sg5006
Nsg5007
Nsa(dp5129
g5005
S'O'
sg5006
Nsg5007
Nsa(dp5130
g5005
S'REPORTING'
p5131
sg5006
g4461
sg5007
g5019
sa(dp5132
g5005
S'O'
sg5006
Nsg5007
Nsa(dp5133
g5005
S'O'
sg5006
Nsg5007
Nsaa(lp5134
(dp5135
g5005
S'O'
sg5006
Nsg5007
Nsa(dp5136
g5005
S'O'
sg5006
Nsg5007
Nsa(dp5137
g5005
S'O'
sg5006
Nsg5007
Nsa(dp5138
g5005
S'O'
sg5006
Nsg5007
Nsa(dp5139
g5005
S'PERCEPTION'
p5140
sg5006
g4470
sg5007
g5019
sa(dp5141
g5005
S'O'
sg5006
Nsg5007
Nsa(dp5142
g5005
S'OCCURRENCE'
p5143
sg5006
g4473
sg5007
g5019
sa(dp5144
g5005
S'O'
sg5006
Nsg5007
Nsa(dp5145
g5005
S'O'
sg5006
Nsg5007
Nsa(dp5146
g5005
S'O'
sg5006
Nsg5007
Nsa(dp5147
g5005
S'O'
sg5006
Nsg5007
Nsa(dp5148
g5005
S'O'
sg5006
Nsg5007
Nsa(dp5149
g5005
S'O'
sg5006
Nsg5007
Nsa(dp5150
g5005
S'O'
sg5006
Nsg5007
Nsa(dp5151
g5005
S'O'
sg5006
Nsg5007
Nsa(dp5152
g5005
S'O'
sg5006
Nsg5007
Nsa(dp5153
g5005
S'O'
sg5006
Nsg5007
Nsa(dp5154
g5005
S'O'
sg5006
Nsg5007
Nsa(dp5155
g5005
S'O'
sg5006
Nsg5007
Nsa(dp5156
g5005
S'O'
sg5006
Nsg5007
Nsa(dp5157
g5005
S'O'
sg5006
Nsg5007
Nsaa(lp5158
(dp5159
g5005
S'O'
sg5006
Nsg5007
Nsa(dp5160
g5005
S'O'
sg5006
Nsg5007
Nsa(dp5161
g5005
S'OCCURRENCE'
p5162
sg5006
g4478
sg5007
g5019
sa(dp5163
g5005
S'O'
sg5006
Nsg5007
Nsa(dp5164
g5005
S'O'
sg5006
Nsg5007
Nsaa(lp5165
(dp5166
g5005
S'O'
sg5006
Nsg5007
Nsa(dp5167
g5005
S'O'
sg5006
Nsg5007
Nsa(dp5168
g5005
S'O'
sg5006
Nsg5007
Nsa(dp5169
g5005
S'O'
sg5006
Nsg5007
Nsa(dp5170
g5005
S'O'
sg5006
Nsg5007
Nsa(dp5171
g5005
S'I_ACTION'
p5172
sg5006
g4482
sg5007
g5019
sa(dp5173
g5005
S'O'
sg5006
Nsg5007
Nsa(dp5174
g5005
S'OCCURRENCE'
p5175
sg5006
g4485
sg5007
g5019
sa(dp5176
g5005
S'O'
sg5006
Nsg5007
Nsa(dp5177
g5005
S'O'
sg5006
Nsg5007
Nsa(dp5178
g5005
S'O'
sg5006
Nsg5007
Nsa(dp5179
g5005
S'O'
sg5006
Nsg5007
Nsaa(lp5180
(dp5181
g5005
S'O'
sg5006
Nsg5007
Nsa(dp5182
g5005
S'O'
sg5006
Nsg5007
Nsa(dp5183
g5005
S'O'
sg5006
Nsg5007
Nsa(dp5184
g5005
S'O'
sg5006
Nsg5007
Nsa(dp5185
g5005
S'O'
sg5006
Nsg5007
Nsa(dp5186
g5005
S'O'
sg5006
Nsg5007
Nsa(dp5187
g5005
S'PERCEPTION'
p5188
sg5006
g4491
sg5007
g5019
sa(dp5189
g5005
S'O'
sg5006
Nsg5007
Nsa(dp5190
g5005
S'O'
sg5006
Nsg5007
Nsa(dp5191
g5005
S'OCCURRENCE'
p5192
sg5006
g4495
sg5007
g5019
sa(dp5193
g5005
S'O'
sg5006
Nsg5007
Nsaa(lp5194
(dp5195
g5005
S'O'
sg5006
Nsg5007
Nsa(dp5196
g5005
S'O'
sg5006
Nsg5007
Nsa(dp5197
g5005
S'O'
sg5006
Nsg5007
Nsa(dp5198
g5005
S'OCCURRENCE'
p5199
sg5006
g4500
sg5007
g5019
sa(dp5200
g5005
S'O'
sg5006
Nsg5007
Nsaa(lp5201
(dp5202
g5005
S'O'
sg5006
Nsg5007
Nsa(dp5203
g5005
S'O'
sg5006
Nsg5007
Nsa(dp5204
g5005
S'O'
sg5006
Nsg5007
Nsa(dp5205
g5005
S'O'
sg5006
Nsg5007
Nsa(dp5206
g5005
S'OCCURRENCE'
p5207
sg5006
g4504
sg5007
g5019
sa(dp5208
g5005
S'O'
sg5006
Nsg5007
Nsa(dp5209
g5005
S'O'
sg5006
Nsg5007
Nsa(dp5210
g5005
S'O'
sg5006
Nsg5007
Nsa(dp5211
g5005
S'O'
sg5006
Nsg5007
Nsa(dp5212
g5005
S'O'
sg5006
Nsg5007
Nsa(dp5213
g5005
S'O'
sg5006
Nsg5007
Nsa(dp5214
g5005
S'O'
sg5006
Nsg5007
Nsaa(lp5215
(dp5216
g5005
S'O'
sg5006
Nsg5007
Nsa(dp5217
g5005
S'O'
sg5006
Nsg5007
Nsa(dp5218
g5005
S'O'
sg5006
Nsg5007
Nsa(dp5219
g5005
S'O'
sg5006
Nsg5007
Nsa(dp5220
g5005
S'O'
sg5006
Nsg5007
Nsaa(lp5221
(dp5222
g5005
S'O'
sg5006
Nsg5007
Nsa(dp5223
g5005
S'O'
sg5006
Nsg5007
Nsa(dp5224
g5005
S'O'
sg5006
Nsg5007
Nsa(dp5225
g5005
S'O'
sg5006
Nsg5007
Nsa(dp5226
g5005
S'OCCURRENCE'
p5227
sg5006
g4507
sg5007
g5019
sa(dp5228
g5005
S'O'
sg5006
Nsg5007
Nsa(dp5229
g5005
S'O'
sg5006
Nsg5007
Nsa(dp5230
g5005
S'O'
sg5006
Nsg5007
Nsa(dp5231
g5005
S'O'
sg5006
Nsg5007
Nsa(dp5232
g5005
S'O'
sg5006
Nsg5007
Nsa(dp5233
g5005
S'O'
sg5006
Nsg5007
Nsa(dp5234
g5005
S'O'
sg5006
Nsg5007
Nsa(dp5235
g5005
S'O'
sg5006
Nsg5007
Nsa(dp5236
g5005
S'PERCEPTION'
p5237
sg5006
g4509
sg5007
g5019
sa(dp5238
g5005
S'O'
sg5006
Nsg5007
Nsa(dp5239
g5005
S'O'
sg5006
Nsg5007
Nsa(dp5240
g5005
S'OCCURRENCE'
p5241
sg5006
g4515
sg5007
g5019
sa(dp5242
g5005
S'O'
sg5006
Nsg5007
Nsa(dp5243
g5005
S'O'
sg5006
Nsg5007
Nsa(dp5244
g5005
S'O'
sg5006
Nsg5007
Nsa(dp5245
g5005
S'O'
sg5006
Nsg5007
Nsa(dp5246
g5005
S'O'
sg5006
Nsg5007
Nsa(dp5247
g5005
S'O'
sg5006
Nsg5007
Nsa(dp5248
g5005
S'O'
sg5006
Nsg5007
Nsa(dp5249
g5005
S'O'
sg5006
Nsg5007
Nsa(dp5250
g5005
S'O'
sg5006
Nsg5007
Nsa(dp5251
g5005
S'O'
sg5006
Nsg5007
Nsa(dp5252
g5005
S'O'
sg5006
Nsg5007
Nsa(dp5253
g5005
S'O'
sg5006
Nsg5007
Nsa(dp5254
g5005
S'O'
sg5006
Nsg5007
Nsa(dp5255
g5005
S'O'
sg5006
Nsg5007
Nsa(dp5256
g5005
S'O'
sg5006
Nsg5007
Nsa(dp5257
g5005
S'O'
sg5006
Nsg5007
Nsa(dp5258
g5005
S'O'
sg5006
Nsg5007
Nsa(dp5259
g5005
S'O'
sg5006
Nsg5007
Nsa(dp5260
g5005
S'O'
sg5006
Nsg5007
Nsa(dp5261
g5005
S'O'
sg5006
Nsg5007
Nsa(dp5262
g5005
S'O'
sg5006
Nsg5007
Nsa(dp5263
g5005
S'O'
sg5006
Nsg5007
Nsa(dp5264
g5005
S'OCCURRENCE'
p5265
sg5006
g4518
sg5007
g5019
sa(dp5266
g5005
S'O'
sg5006
Nsg5007
Nsa(dp5267
g5005
S'O'
sg5006
Nsg5007
Nsa(dp5268
g5005
S'O'
sg5006
Nsg5007
Nsa(dp5269
g5005
S'O'
sg5006
Nsg5007
Nsaa(lp5270
(dp5271
g5005
S'O'
sg5006
Nsg5007
Nsa(dp5272
g5005
S'O'
sg5006
Nsg5007
Nsa(dp5273
g5005
S'O'
sg5006
Nsg5007
Nsa(dp5274
g5005
S'O'
sg5006
Nsg5007
Nsa(dp5275
g5005
S'O'
sg5006
Nsg5007
Nsa(dp5276
g5005
S'O'
sg5006
Nsg5007
Nsa(dp5277
g5005
S'I_STATE'
p5278
sg5006
g4528
sg5007
g5019
sa(dp5279
g5005
S'O'
sg5006
Nsg5007
Nsa(dp5280
g5005
S'O'
sg5006
Nsg5007
Nsa(dp5281
g5005
S'O'
sg5006
Nsg5007
Nsa(dp5282
g5005
S'O'
sg5006
Nsg5007
Nsa(dp5283
g5005
S'OCCURRENCE'
p5284
sg5006
g4531
sg5007
g5019
sa(dp5285
g5005
S'O'
sg5006
Nsg5007
Nsa(dp5286
g5005
S'O'
sg5006
Nsg5007
Nsa(dp5287
g5005
S'O'
sg5006
Nsg5007
Nsa(dp5288
g5005
S'O'
sg5006
Nsg5007
Nsa(dp5289
g5005
S'OCCURRENCE'
p5290
sg5006
g4534
sg5007
g5019
sa(dp5291
g5005
S'O'
sg5006
Nsg5007
Nsa(dp5292
g5005
S'O'
sg5006
Nsg5007
Nsa(dp5293
g5005
S'O'
sg5006
Nsg5007
Nsaa(lp5294
(dp5295
g5005
S'O'
sg5006
Nsg5007
Nsa(dp5296
g5005
S'O'
sg5006
Nsg5007
Nsa(dp5297
g5005
S'O'
sg5006
Nsg5007
Nsa(dp5298
g5005
S'O'
sg5006
Nsg5007
Nsa(dp5299
g5005
S'O'
sg5006
Nsg5007
Nsa(dp5300
g5005
S'O'
sg5006
Nsg5007
Nsa(dp5301
g5005
S'O'
sg5006
Nsg5007
Nsa(dp5302
g5005
S'O'
sg5006
Nsg5007
Nsa(dp5303
g5005
S'O'
sg5006
Nsg5007
Nsa(dp5304
g5005
S'O'
sg5006
Nsg5007
Nsa(dp5305
g5005
S'O'
sg5006
Nsg5007
Nsaa(lp5306
(dp5307
g5005
S'O'
sg5006
Nsg5007
Nsa(dp5308
g5005
S'O'
sg5006
Nsg5007
Nsa(dp5309
g5005
S'O'
sg5006
Nsg5007
Nsa(dp5310
g5005
S'O'
sg5006
Nsg5007
Nsaa(lp5311
(dp5312
g5005
S'O'
sg5006
Nsg5007
Nsa(dp5313
g5005
S'O'
sg5006
Nsg5007
Nsa(dp5314
g5005
S'O'
sg5006
Nsg5007
Nsa(dp5315
g5005
S'O'
sg5006
Nsg5007
Nsaa(lp5316
(dp5317
g5005
S'O'
sg5006
Nsg5007
Nsa(dp5318
g5005
S'O'
sg5006
Nsg5007
Nsa(dp5319
g5005
S'O'
sg5006
Nsg5007
Nsa(dp5320
g5005
S'O'
sg5006
Nsg5007
Nsa(dp5321
g5005
S'O'
sg5006
Nsg5007
NsaasS'note_path'
p5322
S'training_data/ABC19980114.1830.0611.tml.TE3input'
p5323
sb.